   1               		.file	"motor.c"
   2               	__SREG__ = 0x3f
   3               	__SP_H__ = 0x3e
   4               	__SP_L__ = 0x3d
   5               	__CCP__  = 0x34
   6               	__tmp_reg__ = 0
   7               	__zero_reg__ = 1
   8               		.global __do_copy_data
   9               		.global __do_clear_bss
  17               	.Ltext0:
  18               		.section	.text.set_default_duty_cycles,"ax",@progbits
  19               	.global	set_default_duty_cycles
  21               	set_default_duty_cycles:
  22               	.LFB6:
  23               	.LSM0:
  24               	/* prologue: function */
  25               	/* frame size = 0 */
  26               	.L2:
  27               	.LSM1:
  28 0000 17BC      		out 71-32,__zero_reg__
  29               	.LSM2:
  30 0002 18BC      		out 72-32,__zero_reg__
  31               	.LSM3:
  32 0004 1092 B300 		sts 179,__zero_reg__
  33               	.LSM4:
  34 0008 1092 B400 		sts 180,__zero_reg__
  35               	.LSM5:
  36 000c 1092 8900 		sts 137,__zero_reg__
  37               	.LSM6:
  38 0010 1092 8800 		sts 136,__zero_reg__
  39               	.LSM7:
  40 0014 1092 8B00 		sts 139,__zero_reg__
  41               	.LSM8:
  42 0018 1092 8A00 		sts 138,__zero_reg__
  43               	.LSM9:
  44 001c 1092 8D00 		sts 141,__zero_reg__
  45               	.LSM10:
  46 0020 1092 8C00 		sts 140,__zero_reg__
  47               	.LSM11:
  48 0024 1092 9900 		sts 153,__zero_reg__
  49               	.LSM12:
  50 0028 1092 9800 		sts 152,__zero_reg__
  51               	.LSM13:
  52 002c 1092 9B00 		sts 155,__zero_reg__
  53               	.LSM14:
  54 0030 1092 9A00 		sts 154,__zero_reg__
  55               	.LSM15:
  56 0034 1092 9D00 		sts 157,__zero_reg__
  57               	.LSM16:
  58 0038 1092 9C00 		sts 156,__zero_reg__
  59 003c 00C0      		rjmp .L2
  60               	.LFE6:
  62               		.section	.text.setup_pwms,"ax",@progbits
  63               	.global	setup_pwms
  65               	setup_pwms:
  66               	.LFB7:
  67               	.LSM17:
  68               	/* prologue: function */
  69               	/* frame size = 0 */
  70               	.LSM18:
  71 0000 84B1      		in r24,36-32
  72 0002 806F      		ori r24,lo8(-16)
  73 0004 84B9      		out 36-32,r24
  74               	.LSM19:
  75 0006 87B1      		in r24,39-32
  76 0008 8067      		ori r24,lo8(112)
  77 000a 87B9      		out 39-32,r24
  78               	.LSM20:
  79 000c 8AB1      		in r24,42-32
  80 000e 8360      		ori r24,lo8(3)
  81 0010 8AB9      		out 42-32,r24
  82               	.LSM21:
  83 0012 93EA      		ldi r25,lo8(-93)
  84 0014 94BD      		out 68-32,r25
  85               	.LSM22:
  86 0016 81E0      		ldi r24,lo8(1)
  87 0018 85BD      		out 69-32,r24
  88               	.LSM23:
  89 001a 9093 B000 		sts 176,r25
  90               	.LSM24:
  91 001e 8093 B100 		sts 177,r24
  92               	.LSM25:
  93 0022 91EA      		ldi r25,lo8(-95)
  94 0024 9093 8000 		sts 128,r25
  95               	.LSM26:
  96 0028 89E0      		ldi r24,lo8(9)
  97 002a 8093 8100 		sts 129,r24
  98               	.LSM27:
  99 002e 1092 8200 		sts 130,__zero_reg__
 100               	.LSM28:
 101 0032 9093 9000 		sts 144,r25
 102               	.LSM29:
 103 0036 8093 9100 		sts 145,r24
 104               	.LSM30:
 105 003a 1092 9200 		sts 146,__zero_reg__
 106               	/* epilogue start */
 107               	.LSM31:
 108 003e 0895      		ret
 109               	.LFE7:
 111               		.section	.text.recv_str,"ax",@progbits
 112               	.global	recv_str
 114               	recv_str:
 115               	.LFB16:
 116               	.LSM32:
 117               	.LVL0:
 118 0000 0F93      		push r16
 119 0002 1F93      		push r17
 120 0004 CF93      		push r28
 121 0006 DF93      		push r29
 122               	/* prologue: function */
 123               	/* frame size = 0 */
 124 0008 EC01      		movw r28,r24
 125 000a 062F      		mov r16,r22
 126               	.LSM33:
 127 000c 10E0      		ldi r17,lo8(0)
 128               	.LVL1:
 129 000e 00C0      		rjmp .L13
 130               	.LVL2:
 131               	.L11:
 132               	.LSM34:
 133 0010 0E94 0000 		call usb_serial_getchar
 134               	.LVL3:
 135               	.LSM35:
 136 0014 2FEF      		ldi r18,hi8(-1)
 137 0016 8F3F      		cpi r24,lo8(-1)
 138 0018 9207      		cpc r25,r18
 139               	.LVL4:
 140 001a 01F0      		breq .L8
 141               	.LSM36:
 142 001c 8D30      		cpi r24,13
 143 001e 9105      		cpc r25,__zero_reg__
 144 0020 01F0      		breq .L9
 145 0022 8A30      		cpi r24,10
 146 0024 9105      		cpc r25,__zero_reg__
 147 0026 01F0      		breq .L9
 148               	.LSM37:
 149 0028 8993      		st Y+,r24
 150               	.LSM38:
 151 002a 1F5F      		subi r17,lo8(-(1))
 152 002c 00C0      		rjmp .L13
 153               	.L8:
 154               	.LSM39:
 155 002e 0E94 0000 		call usb_configured
 156               	.LVL5:
 157 0032 8823      		tst r24
 158 0034 01F0      		breq .L10
 159 0036 0E94 0000 		call usb_serial_get_control
 160 003a 80FF      		sbrs r24,0
 161 003c 00C0      		rjmp .L10
 162               	.LVL6:
 163               	.L13:
 164               	.LSM40:
 165 003e 1017      		cp r17,r16
 166 0040 00F0      		brlo .L11
 167 0042 00C0      		rjmp .L9
 168               	.LVL7:
 169               	.L10:
 170 0044 1FEF      		ldi r17,lo8(-1)
 171               	.LVL8:
 172               	.L9:
 173               	.LSM41:
 174 0046 812F      		mov r24,r17
 175               	.LVL9:
 176               	/* epilogue start */
 177 0048 DF91      		pop r29
 178 004a CF91      		pop r28
 179               	.LVL10:
 180 004c 1F91      		pop r17
 181               	.LVL11:
 182 004e 0F91      		pop r16
 183               	.LVL12:
 184 0050 0895      		ret
 185               	.LFE16:
 187               		.section	.text.send_PSTR,"ax",@progbits
 188               	.global	send_PSTR
 190               	send_PSTR:
 191               	.LFB15:
 192               	.LSM42:
 193               	.LVL13:
 194 0000 CF93      		push r28
 195 0002 DF93      		push r29
 196               	/* prologue: function */
 197               	/* frame size = 0 */
 198 0004 EC01      		movw r28,r24
 199               	.LVL14:
 200               	.L16:
 201               	.LSM43:
 202 0006 FE01      		movw r30,r28
 203               	.LVL15:
 204               	.LBB60:
 205               	.LSM44:
 206 0008 2196      		adiw r28,1
 207               	/* #APP */
 208               	 ;  414 "motor.c" 1
 209 000a 8491      		lpm r24, Z
 210               		
 211               	 ;  0 "" 2
 212               	.LVL16:
 213               	/* #NOAPP */
 214               	.LBE60:
 215               	.LSM45:
 216 000c 8823      		tst r24
 217 000e 01F0      		breq .L17
 218               	.LSM46:
 219 0010 0E94 0000 		call usb_serial_putchar
 220               	.LVL17:
 221 0014 00C0      		rjmp .L16
 222               	.LVL18:
 223               	.L17:
 224               	/* epilogue start */
 225               	.LSM47:
 226 0016 DF91      		pop r29
 227 0018 CF91      		pop r28
 228               	.LVL19:
 229 001a 0895      		ret
 230               	.LFE15:
 232               		.section	.text.handle_version_command,"ax",@progbits
 233               	.global	handle_version_command
 235               	handle_version_command:
 236               	.LFB10:
 237               	.LSM48:
 238               	/* prologue: function */
 239               	/* frame size = 0 */
 240               	.LSM49:
 241 0000 80E0      		ldi r24,lo8(__c.1547)
 242 0002 90E0      		ldi r25,hi8(__c.1547)
 243 0004 0E94 0000 		call send_PSTR
 244               	/* epilogue start */
 245               	.LSM50:
 246 0008 0895      		ret
 247               	.LFE10:
 249               		.section	.text.handle_pwm_ports_command,"ax",@progbits
 250               	.global	handle_pwm_ports_command
 252               	handle_pwm_ports_command:
 253               	.LFB12:
 254               	.LSM51:
 255               	/* prologue: function */
 256               	/* frame size = 0 */
 257               	.LSM52:
 258 0000 83E0      		ldi r24,lo8(3)
 259 0002 0E94 0000 		call usb_serial_putchar
 260               	.LSM53:
 261 0006 80E0      		ldi r24,lo8(0)
 262 0008 0E94 0000 		call usb_serial_putchar
 263               	.LSM54:
 264 000c 80E0      		ldi r24,lo8(__c.1564)
 265 000e 90E0      		ldi r25,hi8(__c.1564)
 266 0010 0E94 0000 		call send_PSTR
 267               	/* epilogue start */
 268               	.LSM55:
 269 0014 0895      		ret
 270               	.LFE12:
 272               		.section	.text.handle_ping_command,"ax",@progbits
 273               	.global	handle_ping_command
 275               	handle_ping_command:
 276               	.LFB11:
 277               	.LSM56:
 278               	.LVL20:
 279 0000 0F93      		push r16
 280 0002 1F93      		push r17
 281 0004 CF93      		push r28
 282 0006 DF93      		push r29
 283               	/* prologue: function */
 284               	/* frame size = 0 */
 285 0008 062F      		mov r16,r22
 286               	.LSM57:
 287 000a EC01      		movw r28,r24
 288               	.LVL21:
 289 000c 11E0      		ldi r17,lo8(1)
 290               	.LVL22:
 291 000e 00C0      		rjmp .L23
 292               	.LVL23:
 293               	.L24:
 294               	.LSM58:
 295 0010 8881      		ld r24,Y
 296 0012 0E94 0000 		call usb_serial_putchar
 297               	.LSM59:
 298 0016 1F5F      		subi r17,lo8(-(1))
 299               	.LVL24:
 300               	.L23:
 301 0018 2196      		adiw r28,1
 302               	.LSM60:
 303 001a 1017      		cp r17,r16
 304 001c 00F0      		brlo .L24
 305               	.LSM61:
 306 001e 8AE0      		ldi r24,lo8(10)
 307 0020 0E94 0000 		call usb_serial_putchar
 308               	/* epilogue start */
 309               	.LSM62:
 310 0024 DF91      		pop r29
 311 0026 CF91      		pop r28
 312 0028 1F91      		pop r17
 313               	.LVL25:
 314 002a 0F91      		pop r16
 315               	.LVL26:
 316 002c 0895      		ret
 317               	.LFE11:
 319               		.section	.text.handle_set_pwm_command,"ax",@progbits
 320               	.global	handle_set_pwm_command
 322               	handle_set_pwm_command:
 323               	.LFB8:
 324               	.LSM63:
 325               	.LVL27:
 326 0000 0F93      		push r16
 327 0002 1F93      		push r17
 328               	/* prologue: function */
 329               	/* frame size = 0 */
 330 0004 182F      		mov r17,r24
 331 0006 062F      		mov r16,r22
 332               	.LSM64:
 333 0008 84E0      		ldi r24,lo8(4)
 334               	.LVL28:
 335 000a 0E94 0000 		call usb_serial_putchar
 336               	.LVL29:
 337               	.LSM65:
 338 000e 812F      		mov r24,r17
 339 0010 0E94 0000 		call usb_serial_putchar
 340               	.LSM66:
 341 0014 1430      		cpi r17,lo8(4)
 342 0016 01F0      		breq .L32
 343 0018 1530      		cpi r17,lo8(5)
 344 001a 00F4      		brsh .L37
 345 001c 1130      		cpi r17,lo8(1)
 346 001e 01F0      		breq .L29
 347 0020 1130      		cpi r17,lo8(1)
 348 0022 00F0      		brlo .L28
 349 0024 1230      		cpi r17,lo8(2)
 350 0026 01F0      		breq .L30
 351 0028 1330      		cpi r17,lo8(3)
 352 002a 01F4      		brne .L27
 353 002c 00C0      		rjmp .L42
 354               	.L37:
 355 002e 1630      		cpi r17,lo8(6)
 356 0030 01F0      		breq .L34
 357 0032 1630      		cpi r17,lo8(6)
 358 0034 00F0      		brlo .L33
 359 0036 1730      		cpi r17,lo8(7)
 360 0038 01F0      		breq .L35
 361 003a 1830      		cpi r17,lo8(8)
 362 003c 01F4      		brne .L27
 363 003e 00C0      		rjmp .L43
 364               	.L28:
 365               	.LSM67:
 366 0040 07BD      		out 71-32,r16
 367 0042 00C0      		rjmp .L38
 368               	.L29:
 369               	.LSM68:
 370 0044 08BD      		out 72-32,r16
 371 0046 00C0      		rjmp .L38
 372               	.L30:
 373               	.LSM69:
 374 0048 802F      		mov r24,r16
 375 004a 90E0      		ldi r25,lo8(0)
 376 004c 9093 8900 		sts (136)+1,r25
 377 0050 8093 8800 		sts 136,r24
 378 0054 00C0      		rjmp .L38
 379               	.L42:
 380               	.LSM70:
 381 0056 802F      		mov r24,r16
 382 0058 90E0      		ldi r25,lo8(0)
 383 005a 9093 8B00 		sts (138)+1,r25
 384 005e 8093 8A00 		sts 138,r24
 385 0062 00C0      		rjmp .L38
 386               	.L32:
 387               	.LSM71:
 388 0064 0093 B300 		sts 179,r16
 389 0068 00C0      		rjmp .L38
 390               	.L33:
 391               	.LSM72:
 392 006a 0093 B400 		sts 180,r16
 393 006e 00C0      		rjmp .L38
 394               	.L34:
 395               	.LSM73:
 396 0070 802F      		mov r24,r16
 397 0072 90E0      		ldi r25,lo8(0)
 398 0074 9093 9900 		sts (152)+1,r25
 399 0078 8093 9800 		sts 152,r24
 400 007c 00C0      		rjmp .L38
 401               	.L35:
 402               	.LSM74:
 403 007e 802F      		mov r24,r16
 404 0080 90E0      		ldi r25,lo8(0)
 405 0082 9093 9B00 		sts (154)+1,r25
 406 0086 8093 9A00 		sts 154,r24
 407 008a 00C0      		rjmp .L38
 408               	.L43:
 409               	.LSM75:
 410 008c 802F      		mov r24,r16
 411 008e 90E0      		ldi r25,lo8(0)
 412 0090 9093 9D00 		sts (156)+1,r25
 413 0094 8093 9C00 		sts 156,r24
 414 0098 00C0      		rjmp .L38
 415               	.L27:
 416               	.LSM76:
 417 009a 81E0      		ldi r24,lo8(1)
 418 009c 00C0      		rjmp .L41
 419               	.L38:
 420               	.LSM77:
 421 009e 80E0      		ldi r24,lo8(0)
 422               	.L41:
 423 00a0 0E94 0000 		call usb_serial_putchar
 424               	.LSM78:
 425 00a4 8AE0      		ldi r24,lo8(10)
 426 00a6 0E94 0000 		call usb_serial_putchar
 427               	/* epilogue start */
 428               	.LSM79:
 429 00aa 1F91      		pop r17
 430               	.LVL30:
 431 00ac 0F91      		pop r16
 432               	.LVL31:
 433 00ae 0895      		ret
 434               	.LFE8:
 436               		.section	.text.handle_sensor_query,"ax",@progbits
 437               	.global	handle_sensor_query
 439               	handle_sensor_query:
 440               	.LFB9:
 441               	.LSM80:
 442               	.LVL32:
 443 0000 DF92      		push r13
 444 0002 EF92      		push r14
 445 0004 FF92      		push r15
 446 0006 0F93      		push r16
 447 0008 1F93      		push r17
 448 000a DF93      		push r29
 449 000c CF93      		push r28
 450 000e 00D0      		rcall .
 451 0010 00D0      		rcall .
 452 0012 CDB7      		in r28,__SP_L__
 453 0014 DEB7      		in r29,__SP_H__
 454               	/* prologue: function */
 455               	/* frame size = 4 */
 456 0016 182F      		mov r17,r24
 457               	.LSM81:
 458 0018 87E0      		ldi r24,lo8(7)
 459               	.LVL33:
 460 001a 0E94 0000 		call usb_serial_putchar
 461               	.LSM82:
 462 001e 812F      		mov r24,r17
 463 0020 0E94 0000 		call usb_serial_putchar
 464               	.LSM83:
 465 0024 1330      		cpi r17,lo8(3)
 466 0026 01F4      		brne .+2
 467 0028 00C0      		rjmp .L49
 468 002a 1430      		cpi r17,lo8(4)
 469 002c 00F4      		brsh .L54
 470 002e 1130      		cpi r17,lo8(1)
 471 0030 01F4      		brne .+2
 472 0032 00C0      		rjmp .L47
 473 0034 1230      		cpi r17,lo8(2)
 474 0036 00F0      		brlo .+2
 475 0038 00C0      		rjmp .L48
 476 003a 00C0      		rjmp .L140
 477               	.L54:
 478 003c 1530      		cpi r17,lo8(5)
 479 003e 01F4      		brne .+2
 480 0040 00C0      		rjmp .L51
 481 0042 1530      		cpi r17,lo8(5)
 482 0044 00F4      		brsh .+2
 483 0046 00C0      		rjmp .L50
 484 0048 1630      		cpi r17,lo8(6)
 485 004a 01F4      		brne .+2
 486 004c 00C0      		rjmp .L52
 487 004e 1730      		cpi r17,lo8(7)
 488 0050 01F0      		breq .+2
 489 0052 00C0      		rjmp .L139
 490 0054 00C0      		rjmp .L141
 491               	.L140:
 492               	.LSM84:
 493 0056 80E0      		ldi r24,lo8(0)
 494 0058 60E4      		ldi r22,lo8(64)
 495 005a 0E94 0000 		call adc_start
 496 005e 88E8      		ldi r24,lo8(5000)
 497 0060 93E1      		ldi r25,hi8(5000)
 498               	.LVL34:
 499               	.LBB61:
 500               	.LBB62:
 501               	.LBB63:
 502               	.LBB64:
 503               	.LSM85:
 504 0062 20E9      		ldi r18,lo8(400)
 505 0064 31E0      		ldi r19,hi8(400)
 506               	.L55:
 507 0066 F901      		movw r30,r18
 508               	.LVL35:
 509               	/* #APP */
 510               	 ;  105 "/usr/lib/gcc/avr/4.3.4/../../../avr/include/util/delay_basic.h" 1
 511 0068 3197      		1: sbiw r30,1
 512 006a 01F4      		brne 1b
 513               	 ;  0 "" 2
 514               	/* #NOAPP */
 515               	.LBE64:
 516               	.LBE63:
 517               	.LSM86:
 518 006c 0197      		sbiw r24,1
 519               	.LSM87:
 520 006e 01F4      		brne .L55
 521 0070 01E0      		ldi r16,lo8(1)
 522 0072 10E0      		ldi r17,hi8(1)
 523               	.LVL36:
 524               	.LBE62:
 525               	.LBE61:
 526               	.LSM88:
 527 0074 F0E2      		ldi r31,lo8(32)
 528 0076 DF2E      		mov r13,r31
 529               	.LSM89:
 530 0078 7E01      		movw r14,r28
 531 007a 0894      		sec
 532 007c E11C      		adc r14,__zero_reg__
 533 007e F11C      		adc r15,__zero_reg__
 534               	.L62:
 535               	.LSM90:
 536 0080 0E94 0000 		call adc_read
 537               	.LVL37:
 538 0084 9C01      		movw r18,r24
 539               	.LSM91:
 540 0086 892F      		mov r24,r25
 541 0088 9927      		clr r25
 542               	.LVL38:
 543 008a 482F      		mov r20,r24
 544 008c 4F70      		andi r20,lo8(15)
 545 008e 8F70      		andi r24,lo8(15)
 546 0090 9070      		andi r25,hi8(15)
 547 0092 0A97      		sbiw r24,10
 548 0094 00F4      		brsh .L56
 549 0096 542F      		mov r21,r20
 550 0098 505D      		subi r21,lo8(-(48))
 551 009a 00C0      		rjmp .L57
 552               	.L56:
 553 009c 542F      		mov r21,r20
 554 009e 595C      		subi r21,lo8(-(55))
 555               	.L57:
 556               	.LSM92:
 557 00a0 C901      		movw r24,r18
 558               	.LVL39:
 559 00a2 74E0      		ldi r23,4
 560 00a4 9695      	1:	lsr r25
 561 00a6 8795      		ror r24
 562 00a8 7A95      		dec r23
 563 00aa 01F4      		brne 1b
 564 00ac 482F      		mov r20,r24
 565 00ae 4F70      		andi r20,lo8(15)
 566 00b0 8F70      		andi r24,lo8(15)
 567 00b2 9070      		andi r25,hi8(15)
 568 00b4 0A97      		sbiw r24,10
 569 00b6 00F4      		brsh .L58
 570 00b8 842F      		mov r24,r20
 571 00ba 805D      		subi r24,lo8(-(48))
 572 00bc 00C0      		rjmp .L59
 573               	.L58:
 574 00be 842F      		mov r24,r20
 575 00c0 895C      		subi r24,lo8(-(55))
 576               	.L59:
 577 00c2 922F      		mov r25,r18
 578               	.LVL40:
 579 00c4 9F70      		andi r25,lo8(15)
 580               	.LSM93:
 581 00c6 2F70      		andi r18,lo8(15)
 582 00c8 3070      		andi r19,hi8(15)
 583               	.LVL41:
 584 00ca 2A30      		cpi r18,10
 585 00cc 3105      		cpc r19,__zero_reg__
 586 00ce 00F4      		brsh .L60
 587 00d0 905D      		subi r25,lo8(-(48))
 588 00d2 00C0      		rjmp .L61
 589               	.L60:
 590 00d4 995C      		subi r25,lo8(-(55))
 591               	.L61:
 592 00d6 9B83      		std Y+3,r25
 593               	.LSM94:
 594 00d8 DC82      		std Y+4,r13
 595               	.LSM95:
 596 00da 8A83      		std Y+2,r24
 597               	.LSM96:
 598 00dc 5983      		std Y+1,r21
 599               	.LSM97:
 600 00de C701      		movw r24,r14
 601 00e0 64E0      		ldi r22,lo8(4)
 602 00e2 70E0      		ldi r23,hi8(4)
 603 00e4 0E94 0000 		call usb_serial_write
 604               	.LVL42:
 605               	.LSM98:
 606 00e8 0F5F      		subi r16,lo8(-(1))
 607 00ea 1F4F      		sbci r17,hi8(-(1))
 608 00ec 0A30      		cpi r16,10
 609 00ee 1105      		cpc r17,__zero_reg__
 610 00f0 01F4      		brne .L62
 611 00f2 00C0      		rjmp .L63
 612               	.LVL43:
 613               	.L47:
 614               	.LSM99:
 615 00f4 81E0      		ldi r24,lo8(1)
 616 00f6 60E4      		ldi r22,lo8(64)
 617 00f8 0E94 0000 		call adc_start
 618 00fc 88E8      		ldi r24,lo8(5000)
 619 00fe 93E1      		ldi r25,hi8(5000)
 620               	.LVL44:
 621               	.LBB65:
 622               	.LBB66:
 623               	.LBB67:
 624               	.LBB68:
 625               	.LSM100:
 626 0100 20E9      		ldi r18,lo8(400)
 627 0102 31E0      		ldi r19,hi8(400)
 628               	.L64:
 629 0104 F901      		movw r30,r18
 630               	.LVL45:
 631               	/* #APP */
 632               	 ;  105 "/usr/lib/gcc/avr/4.3.4/../../../avr/include/util/delay_basic.h" 1
 633 0106 3197      		1: sbiw r30,1
 634 0108 01F4      		brne 1b
 635               	 ;  0 "" 2
 636               	/* #NOAPP */
 637               	.LBE68:
 638               	.LBE67:
 639               	.LSM101:
 640 010a 0197      		sbiw r24,1
 641               	.LSM102:
 642 010c 01F4      		brne .L64
 643 010e 01E0      		ldi r16,lo8(1)
 644 0110 10E0      		ldi r17,hi8(1)
 645               	.LVL46:
 646               	.LBE66:
 647               	.LBE65:
 648               	.LSM103:
 649 0112 60E2      		ldi r22,lo8(32)
 650 0114 D62E      		mov r13,r22
 651               	.LSM104:
 652 0116 7E01      		movw r14,r28
 653 0118 0894      		sec
 654 011a E11C      		adc r14,__zero_reg__
 655 011c F11C      		adc r15,__zero_reg__
 656               	.L71:
 657               	.LSM105:
 658 011e 0E94 0000 		call adc_read
 659               	.LVL47:
 660 0122 9C01      		movw r18,r24
 661               	.LSM106:
 662 0124 892F      		mov r24,r25
 663 0126 9927      		clr r25
 664               	.LVL48:
 665 0128 482F      		mov r20,r24
 666 012a 4F70      		andi r20,lo8(15)
 667 012c 8F70      		andi r24,lo8(15)
 668 012e 9070      		andi r25,hi8(15)
 669 0130 0A97      		sbiw r24,10
 670 0132 00F4      		brsh .L65
 671 0134 542F      		mov r21,r20
 672 0136 505D      		subi r21,lo8(-(48))
 673 0138 00C0      		rjmp .L66
 674               	.L65:
 675 013a 542F      		mov r21,r20
 676 013c 595C      		subi r21,lo8(-(55))
 677               	.L66:
 678               	.LSM107:
 679 013e C901      		movw r24,r18
 680               	.LVL49:
 681 0140 44E0      		ldi r20,4
 682 0142 9695      	1:	lsr r25
 683 0144 8795      		ror r24
 684 0146 4A95      		dec r20
 685 0148 01F4      		brne 1b
 686 014a 482F      		mov r20,r24
 687 014c 4F70      		andi r20,lo8(15)
 688 014e 8F70      		andi r24,lo8(15)
 689 0150 9070      		andi r25,hi8(15)
 690 0152 0A97      		sbiw r24,10
 691 0154 00F4      		brsh .L67
 692 0156 842F      		mov r24,r20
 693 0158 805D      		subi r24,lo8(-(48))
 694 015a 00C0      		rjmp .L68
 695               	.L67:
 696 015c 842F      		mov r24,r20
 697 015e 895C      		subi r24,lo8(-(55))
 698               	.L68:
 699 0160 922F      		mov r25,r18
 700               	.LVL50:
 701 0162 9F70      		andi r25,lo8(15)
 702               	.LSM108:
 703 0164 2F70      		andi r18,lo8(15)
 704 0166 3070      		andi r19,hi8(15)
 705               	.LVL51:
 706 0168 2A30      		cpi r18,10
 707 016a 3105      		cpc r19,__zero_reg__
 708 016c 00F4      		brsh .L69
 709 016e 905D      		subi r25,lo8(-(48))
 710 0170 00C0      		rjmp .L70
 711               	.L69:
 712 0172 995C      		subi r25,lo8(-(55))
 713               	.L70:
 714 0174 9B83      		std Y+3,r25
 715               	.LSM109:
 716 0176 DC82      		std Y+4,r13
 717               	.LSM110:
 718 0178 8A83      		std Y+2,r24
 719               	.LSM111:
 720 017a 5983      		std Y+1,r21
 721               	.LSM112:
 722 017c C701      		movw r24,r14
 723 017e 64E0      		ldi r22,lo8(4)
 724 0180 70E0      		ldi r23,hi8(4)
 725 0182 0E94 0000 		call usb_serial_write
 726               	.LVL52:
 727               	.LSM113:
 728 0186 0F5F      		subi r16,lo8(-(1))
 729 0188 1F4F      		sbci r17,hi8(-(1))
 730 018a 0A30      		cpi r16,10
 731 018c 1105      		cpc r17,__zero_reg__
 732 018e 01F4      		brne .L71
 733 0190 00C0      		rjmp .L63
 734               	.LVL53:
 735               	.L48:
 736               	.LSM114:
 737 0192 82E0      		ldi r24,lo8(2)
 738 0194 60E4      		ldi r22,lo8(64)
 739 0196 0E94 0000 		call adc_start
 740 019a 88E8      		ldi r24,lo8(5000)
 741 019c 93E1      		ldi r25,hi8(5000)
 742               	.LVL54:
 743               	.LBB69:
 744               	.LBB70:
 745               	.LBB71:
 746               	.LBB72:
 747               	.LSM115:
 748 019e 20E9      		ldi r18,lo8(400)
 749 01a0 31E0      		ldi r19,hi8(400)
 750               	.L72:
 751 01a2 F901      		movw r30,r18
 752               	.LVL55:
 753               	/* #APP */
 754               	 ;  105 "/usr/lib/gcc/avr/4.3.4/../../../avr/include/util/delay_basic.h" 1
 755 01a4 3197      		1: sbiw r30,1
 756 01a6 01F4      		brne 1b
 757               	 ;  0 "" 2
 758               	/* #NOAPP */
 759               	.LBE72:
 760               	.LBE71:
 761               	.LSM116:
 762 01a8 0197      		sbiw r24,1
 763               	.LSM117:
 764 01aa 01F4      		brne .L72
 765 01ac 01E0      		ldi r16,lo8(1)
 766 01ae 10E0      		ldi r17,hi8(1)
 767               	.LVL56:
 768               	.LBE70:
 769               	.LBE69:
 770               	.LSM118:
 771 01b0 80E2      		ldi r24,lo8(32)
 772 01b2 D82E      		mov r13,r24
 773               	.LVL57:
 774               	.LSM119:
 775 01b4 7E01      		movw r14,r28
 776 01b6 0894      		sec
 777 01b8 E11C      		adc r14,__zero_reg__
 778 01ba F11C      		adc r15,__zero_reg__
 779               	.L79:
 780               	.LSM120:
 781 01bc 0E94 0000 		call adc_read
 782               	.LVL58:
 783 01c0 9C01      		movw r18,r24
 784               	.LSM121:
 785 01c2 892F      		mov r24,r25
 786 01c4 9927      		clr r25
 787               	.LVL59:
 788 01c6 482F      		mov r20,r24
 789 01c8 4F70      		andi r20,lo8(15)
 790 01ca 8F70      		andi r24,lo8(15)
 791 01cc 9070      		andi r25,hi8(15)
 792 01ce 0A97      		sbiw r24,10
 793 01d0 00F4      		brsh .L73
 794 01d2 542F      		mov r21,r20
 795 01d4 505D      		subi r21,lo8(-(48))
 796 01d6 00C0      		rjmp .L74
 797               	.L73:
 798 01d8 542F      		mov r21,r20
 799 01da 595C      		subi r21,lo8(-(55))
 800               	.L74:
 801               	.LSM122:
 802 01dc C901      		movw r24,r18
 803               	.LVL60:
 804 01de A4E0      		ldi r26,4
 805 01e0 9695      	1:	lsr r25
 806 01e2 8795      		ror r24
 807 01e4 AA95      		dec r26
 808 01e6 01F4      		brne 1b
 809 01e8 482F      		mov r20,r24
 810 01ea 4F70      		andi r20,lo8(15)
 811 01ec 8F70      		andi r24,lo8(15)
 812 01ee 9070      		andi r25,hi8(15)
 813 01f0 0A97      		sbiw r24,10
 814 01f2 00F4      		brsh .L75
 815 01f4 842F      		mov r24,r20
 816 01f6 805D      		subi r24,lo8(-(48))
 817 01f8 00C0      		rjmp .L76
 818               	.L75:
 819 01fa 842F      		mov r24,r20
 820 01fc 895C      		subi r24,lo8(-(55))
 821               	.L76:
 822 01fe 922F      		mov r25,r18
 823               	.LVL61:
 824 0200 9F70      		andi r25,lo8(15)
 825               	.LSM123:
 826 0202 2F70      		andi r18,lo8(15)
 827 0204 3070      		andi r19,hi8(15)
 828               	.LVL62:
 829 0206 2A30      		cpi r18,10
 830 0208 3105      		cpc r19,__zero_reg__
 831 020a 00F4      		brsh .L77
 832 020c 905D      		subi r25,lo8(-(48))
 833 020e 00C0      		rjmp .L78
 834               	.L77:
 835 0210 995C      		subi r25,lo8(-(55))
 836               	.L78:
 837 0212 9B83      		std Y+3,r25
 838               	.LSM124:
 839 0214 DC82      		std Y+4,r13
 840               	.LSM125:
 841 0216 8A83      		std Y+2,r24
 842               	.LSM126:
 843 0218 5983      		std Y+1,r21
 844               	.LSM127:
 845 021a C701      		movw r24,r14
 846 021c 64E0      		ldi r22,lo8(4)
 847 021e 70E0      		ldi r23,hi8(4)
 848 0220 0E94 0000 		call usb_serial_write
 849               	.LVL63:
 850               	.LSM128:
 851 0224 0F5F      		subi r16,lo8(-(1))
 852 0226 1F4F      		sbci r17,hi8(-(1))
 853 0228 0A30      		cpi r16,10
 854 022a 1105      		cpc r17,__zero_reg__
 855 022c 01F4      		brne .L79
 856 022e 00C0      		rjmp .L63
 857               	.LVL64:
 858               	.L49:
 859               	.LSM129:
 860 0230 83E0      		ldi r24,lo8(3)
 861 0232 60E4      		ldi r22,lo8(64)
 862 0234 0E94 0000 		call adc_start
 863 0238 88E8      		ldi r24,lo8(5000)
 864 023a 93E1      		ldi r25,hi8(5000)
 865               	.LVL65:
 866               	.LBB73:
 867               	.LBB74:
 868               	.LBB75:
 869               	.LBB76:
 870               	.LSM130:
 871 023c 20E9      		ldi r18,lo8(400)
 872 023e 31E0      		ldi r19,hi8(400)
 873               	.L80:
 874 0240 F901      		movw r30,r18
 875               	.LVL66:
 876               	/* #APP */
 877               	 ;  105 "/usr/lib/gcc/avr/4.3.4/../../../avr/include/util/delay_basic.h" 1
 878 0242 3197      		1: sbiw r30,1
 879 0244 01F4      		brne 1b
 880               	 ;  0 "" 2
 881               	/* #NOAPP */
 882               	.LBE76:
 883               	.LBE75:
 884               	.LSM131:
 885 0246 0197      		sbiw r24,1
 886               	.LSM132:
 887 0248 01F4      		brne .L80
 888 024a 01E0      		ldi r16,lo8(1)
 889 024c 10E0      		ldi r17,hi8(1)
 890               	.LVL67:
 891               	.LBE74:
 892               	.LBE73:
 893               	.LSM133:
 894 024e F0E2      		ldi r31,lo8(32)
 895 0250 DF2E      		mov r13,r31
 896               	.LSM134:
 897 0252 7E01      		movw r14,r28
 898 0254 0894      		sec
 899 0256 E11C      		adc r14,__zero_reg__
 900 0258 F11C      		adc r15,__zero_reg__
 901               	.L87:
 902               	.LSM135:
 903 025a 0E94 0000 		call adc_read
 904               	.LVL68:
 905 025e 9C01      		movw r18,r24
 906               	.LSM136:
 907 0260 892F      		mov r24,r25
 908 0262 9927      		clr r25
 909               	.LVL69:
 910 0264 482F      		mov r20,r24
 911 0266 4F70      		andi r20,lo8(15)
 912 0268 8F70      		andi r24,lo8(15)
 913 026a 9070      		andi r25,hi8(15)
 914 026c 0A97      		sbiw r24,10
 915 026e 00F4      		brsh .L81
 916 0270 542F      		mov r21,r20
 917 0272 505D      		subi r21,lo8(-(48))
 918 0274 00C0      		rjmp .L82
 919               	.L81:
 920 0276 542F      		mov r21,r20
 921 0278 595C      		subi r21,lo8(-(55))
 922               	.L82:
 923               	.LSM137:
 924 027a C901      		movw r24,r18
 925               	.LVL70:
 926 027c 74E0      		ldi r23,4
 927 027e 9695      	1:	lsr r25
 928 0280 8795      		ror r24
 929 0282 7A95      		dec r23
 930 0284 01F4      		brne 1b
 931 0286 482F      		mov r20,r24
 932 0288 4F70      		andi r20,lo8(15)
 933 028a 8F70      		andi r24,lo8(15)
 934 028c 9070      		andi r25,hi8(15)
 935 028e 0A97      		sbiw r24,10
 936 0290 00F4      		brsh .L83
 937 0292 842F      		mov r24,r20
 938 0294 805D      		subi r24,lo8(-(48))
 939 0296 00C0      		rjmp .L84
 940               	.L83:
 941 0298 842F      		mov r24,r20
 942 029a 895C      		subi r24,lo8(-(55))
 943               	.L84:
 944 029c 922F      		mov r25,r18
 945               	.LVL71:
 946 029e 9F70      		andi r25,lo8(15)
 947               	.LSM138:
 948 02a0 2F70      		andi r18,lo8(15)
 949 02a2 3070      		andi r19,hi8(15)
 950               	.LVL72:
 951 02a4 2A30      		cpi r18,10
 952 02a6 3105      		cpc r19,__zero_reg__
 953 02a8 00F4      		brsh .L85
 954 02aa 905D      		subi r25,lo8(-(48))
 955 02ac 00C0      		rjmp .L86
 956               	.L85:
 957 02ae 995C      		subi r25,lo8(-(55))
 958               	.L86:
 959 02b0 9B83      		std Y+3,r25
 960               	.LSM139:
 961 02b2 DC82      		std Y+4,r13
 962               	.LSM140:
 963 02b4 8A83      		std Y+2,r24
 964               	.LSM141:
 965 02b6 5983      		std Y+1,r21
 966               	.LSM142:
 967 02b8 C701      		movw r24,r14
 968 02ba 64E0      		ldi r22,lo8(4)
 969 02bc 70E0      		ldi r23,hi8(4)
 970 02be 0E94 0000 		call usb_serial_write
 971               	.LVL73:
 972               	.LSM143:
 973 02c2 0F5F      		subi r16,lo8(-(1))
 974 02c4 1F4F      		sbci r17,hi8(-(1))
 975 02c6 0A30      		cpi r16,10
 976 02c8 1105      		cpc r17,__zero_reg__
 977 02ca 01F4      		brne .L87
 978 02cc 00C0      		rjmp .L63
 979               	.LVL74:
 980               	.L50:
 981               	.LSM144:
 982 02ce 84E0      		ldi r24,lo8(4)
 983 02d0 60E4      		ldi r22,lo8(64)
 984 02d2 0E94 0000 		call adc_start
 985 02d6 88E8      		ldi r24,lo8(5000)
 986 02d8 93E1      		ldi r25,hi8(5000)
 987               	.LVL75:
 988               	.LBB77:
 989               	.LBB78:
 990               	.LBB79:
 991               	.LBB80:
 992               	.LSM145:
 993 02da 20E9      		ldi r18,lo8(400)
 994 02dc 31E0      		ldi r19,hi8(400)
 995               	.L88:
 996 02de F901      		movw r30,r18
 997               	.LVL76:
 998               	/* #APP */
 999               	 ;  105 "/usr/lib/gcc/avr/4.3.4/../../../avr/include/util/delay_basic.h" 1
 1000 02e0 3197      		1: sbiw r30,1
 1001 02e2 01F4      		brne 1b
 1002               	 ;  0 "" 2
 1003               	/* #NOAPP */
 1004               	.LBE80:
 1005               	.LBE79:
 1006               	.LSM146:
 1007 02e4 0197      		sbiw r24,1
 1008               	.LSM147:
 1009 02e6 01F4      		brne .L88
 1010 02e8 01E0      		ldi r16,lo8(1)
 1011 02ea 10E0      		ldi r17,hi8(1)
 1012               	.LVL77:
 1013               	.LBE78:
 1014               	.LBE77:
 1015               	.LSM148:
 1016 02ec 60E2      		ldi r22,lo8(32)
 1017 02ee D62E      		mov r13,r22
 1018               	.LSM149:
 1019 02f0 7E01      		movw r14,r28
 1020 02f2 0894      		sec
 1021 02f4 E11C      		adc r14,__zero_reg__
 1022 02f6 F11C      		adc r15,__zero_reg__
 1023               	.L95:
 1024               	.LSM150:
 1025 02f8 0E94 0000 		call adc_read
 1026               	.LVL78:
 1027 02fc 9C01      		movw r18,r24
 1028               	.LSM151:
 1029 02fe 892F      		mov r24,r25
 1030 0300 9927      		clr r25
 1031               	.LVL79:
 1032 0302 482F      		mov r20,r24
 1033 0304 4F70      		andi r20,lo8(15)
 1034 0306 8F70      		andi r24,lo8(15)
 1035 0308 9070      		andi r25,hi8(15)
 1036 030a 0A97      		sbiw r24,10
 1037 030c 00F4      		brsh .L89
 1038 030e 542F      		mov r21,r20
 1039 0310 505D      		subi r21,lo8(-(48))
 1040 0312 00C0      		rjmp .L90
 1041               	.L89:
 1042 0314 542F      		mov r21,r20
 1043 0316 595C      		subi r21,lo8(-(55))
 1044               	.L90:
 1045               	.LSM152:
 1046 0318 C901      		movw r24,r18
 1047               	.LVL80:
 1048 031a 44E0      		ldi r20,4
 1049 031c 9695      	1:	lsr r25
 1050 031e 8795      		ror r24
 1051 0320 4A95      		dec r20
 1052 0322 01F4      		brne 1b
 1053 0324 482F      		mov r20,r24
 1054 0326 4F70      		andi r20,lo8(15)
 1055 0328 8F70      		andi r24,lo8(15)
 1056 032a 9070      		andi r25,hi8(15)
 1057 032c 0A97      		sbiw r24,10
 1058 032e 00F4      		brsh .L91
 1059 0330 842F      		mov r24,r20
 1060 0332 805D      		subi r24,lo8(-(48))
 1061 0334 00C0      		rjmp .L92
 1062               	.L91:
 1063 0336 842F      		mov r24,r20
 1064 0338 895C      		subi r24,lo8(-(55))
 1065               	.L92:
 1066 033a 922F      		mov r25,r18
 1067               	.LVL81:
 1068 033c 9F70      		andi r25,lo8(15)
 1069               	.LSM153:
 1070 033e 2F70      		andi r18,lo8(15)
 1071 0340 3070      		andi r19,hi8(15)
 1072               	.LVL82:
 1073 0342 2A30      		cpi r18,10
 1074 0344 3105      		cpc r19,__zero_reg__
 1075 0346 00F4      		brsh .L93
 1076 0348 905D      		subi r25,lo8(-(48))
 1077 034a 00C0      		rjmp .L94
 1078               	.L93:
 1079 034c 995C      		subi r25,lo8(-(55))
 1080               	.L94:
 1081 034e 9B83      		std Y+3,r25
 1082               	.LSM154:
 1083 0350 DC82      		std Y+4,r13
 1084               	.LSM155:
 1085 0352 8A83      		std Y+2,r24
 1086               	.LSM156:
 1087 0354 5983      		std Y+1,r21
 1088               	.LSM157:
 1089 0356 C701      		movw r24,r14
 1090 0358 64E0      		ldi r22,lo8(4)
 1091 035a 70E0      		ldi r23,hi8(4)
 1092 035c 0E94 0000 		call usb_serial_write
 1093               	.LVL83:
 1094               	.LSM158:
 1095 0360 0F5F      		subi r16,lo8(-(1))
 1096 0362 1F4F      		sbci r17,hi8(-(1))
 1097 0364 0A30      		cpi r16,10
 1098 0366 1105      		cpc r17,__zero_reg__
 1099 0368 01F4      		brne .L95
 1100 036a 00C0      		rjmp .L63
 1101               	.LVL84:
 1102               	.L51:
 1103               	.LSM159:
 1104 036c 85E0      		ldi r24,lo8(5)
 1105 036e 60E4      		ldi r22,lo8(64)
 1106 0370 0E94 0000 		call adc_start
 1107 0374 88E8      		ldi r24,lo8(5000)
 1108 0376 93E1      		ldi r25,hi8(5000)
 1109               	.LVL85:
 1110               	.LBB81:
 1111               	.LBB82:
 1112               	.LBB83:
 1113               	.LBB84:
 1114               	.LSM160:
 1115 0378 20E9      		ldi r18,lo8(400)
 1116 037a 31E0      		ldi r19,hi8(400)
 1117               	.L96:
 1118 037c F901      		movw r30,r18
 1119               	.LVL86:
 1120               	/* #APP */
 1121               	 ;  105 "/usr/lib/gcc/avr/4.3.4/../../../avr/include/util/delay_basic.h" 1
 1122 037e 3197      		1: sbiw r30,1
 1123 0380 01F4      		brne 1b
 1124               	 ;  0 "" 2
 1125               	/* #NOAPP */
 1126               	.LBE84:
 1127               	.LBE83:
 1128               	.LSM161:
 1129 0382 0197      		sbiw r24,1
 1130               	.LSM162:
 1131 0384 01F4      		brne .L96
 1132 0386 01E0      		ldi r16,lo8(1)
 1133 0388 10E0      		ldi r17,hi8(1)
 1134               	.LVL87:
 1135               	.LBE82:
 1136               	.LBE81:
 1137               	.LSM163:
 1138 038a 80E2      		ldi r24,lo8(32)
 1139 038c D82E      		mov r13,r24
 1140               	.LVL88:
 1141               	.LSM164:
 1142 038e 7E01      		movw r14,r28
 1143 0390 0894      		sec
 1144 0392 E11C      		adc r14,__zero_reg__
 1145 0394 F11C      		adc r15,__zero_reg__
 1146               	.L103:
 1147               	.LSM165:
 1148 0396 0E94 0000 		call adc_read
 1149               	.LVL89:
 1150 039a 9C01      		movw r18,r24
 1151               	.LSM166:
 1152 039c 892F      		mov r24,r25
 1153 039e 9927      		clr r25
 1154               	.LVL90:
 1155 03a0 482F      		mov r20,r24
 1156 03a2 4F70      		andi r20,lo8(15)
 1157 03a4 8F70      		andi r24,lo8(15)
 1158 03a6 9070      		andi r25,hi8(15)
 1159 03a8 0A97      		sbiw r24,10
 1160 03aa 00F4      		brsh .L97
 1161 03ac 542F      		mov r21,r20
 1162 03ae 505D      		subi r21,lo8(-(48))
 1163 03b0 00C0      		rjmp .L98
 1164               	.L97:
 1165 03b2 542F      		mov r21,r20
 1166 03b4 595C      		subi r21,lo8(-(55))
 1167               	.L98:
 1168               	.LSM167:
 1169 03b6 C901      		movw r24,r18
 1170               	.LVL91:
 1171 03b8 A4E0      		ldi r26,4
 1172 03ba 9695      	1:	lsr r25
 1173 03bc 8795      		ror r24
 1174 03be AA95      		dec r26
 1175 03c0 01F4      		brne 1b
 1176 03c2 482F      		mov r20,r24
 1177 03c4 4F70      		andi r20,lo8(15)
 1178 03c6 8F70      		andi r24,lo8(15)
 1179 03c8 9070      		andi r25,hi8(15)
 1180 03ca 0A97      		sbiw r24,10
 1181 03cc 00F4      		brsh .L99
 1182 03ce 842F      		mov r24,r20
 1183 03d0 805D      		subi r24,lo8(-(48))
 1184 03d2 00C0      		rjmp .L100
 1185               	.L99:
 1186 03d4 842F      		mov r24,r20
 1187 03d6 895C      		subi r24,lo8(-(55))
 1188               	.L100:
 1189 03d8 922F      		mov r25,r18
 1190               	.LVL92:
 1191 03da 9F70      		andi r25,lo8(15)
 1192               	.LSM168:
 1193 03dc 2F70      		andi r18,lo8(15)
 1194 03de 3070      		andi r19,hi8(15)
 1195               	.LVL93:
 1196 03e0 2A30      		cpi r18,10
 1197 03e2 3105      		cpc r19,__zero_reg__
 1198 03e4 00F4      		brsh .L101
 1199 03e6 905D      		subi r25,lo8(-(48))
 1200 03e8 00C0      		rjmp .L102
 1201               	.L101:
 1202 03ea 995C      		subi r25,lo8(-(55))
 1203               	.L102:
 1204 03ec 9B83      		std Y+3,r25
 1205               	.LSM169:
 1206 03ee DC82      		std Y+4,r13
 1207               	.LSM170:
 1208 03f0 8A83      		std Y+2,r24
 1209               	.LSM171:
 1210 03f2 5983      		std Y+1,r21
 1211               	.LSM172:
 1212 03f4 C701      		movw r24,r14
 1213 03f6 64E0      		ldi r22,lo8(4)
 1214 03f8 70E0      		ldi r23,hi8(4)
 1215 03fa 0E94 0000 		call usb_serial_write
 1216               	.LVL94:
 1217               	.LSM173:
 1218 03fe 0F5F      		subi r16,lo8(-(1))
 1219 0400 1F4F      		sbci r17,hi8(-(1))
 1220 0402 0A30      		cpi r16,10
 1221 0404 1105      		cpc r17,__zero_reg__
 1222 0406 01F4      		brne .L103
 1223 0408 00C0      		rjmp .L63
 1224               	.LVL95:
 1225               	.L52:
 1226               	.LSM174:
 1227 040a 86E0      		ldi r24,lo8(6)
 1228 040c 60E4      		ldi r22,lo8(64)
 1229 040e 0E94 0000 		call adc_start
 1230 0412 88E8      		ldi r24,lo8(5000)
 1231 0414 93E1      		ldi r25,hi8(5000)
 1232               	.LVL96:
 1233               	.LBB85:
 1234               	.LBB86:
 1235               	.LBB87:
 1236               	.LBB88:
 1237               	.LSM175:
 1238 0416 20E9      		ldi r18,lo8(400)
 1239 0418 31E0      		ldi r19,hi8(400)
 1240               	.L104:
 1241 041a F901      		movw r30,r18
 1242               	.LVL97:
 1243               	/* #APP */
 1244               	 ;  105 "/usr/lib/gcc/avr/4.3.4/../../../avr/include/util/delay_basic.h" 1
 1245 041c 3197      		1: sbiw r30,1
 1246 041e 01F4      		brne 1b
 1247               	 ;  0 "" 2
 1248               	/* #NOAPP */
 1249               	.LBE88:
 1250               	.LBE87:
 1251               	.LSM176:
 1252 0420 0197      		sbiw r24,1
 1253               	.LSM177:
 1254 0422 01F4      		brne .L104
 1255 0424 01E0      		ldi r16,lo8(1)
 1256 0426 10E0      		ldi r17,hi8(1)
 1257               	.LVL98:
 1258               	.LBE86:
 1259               	.LBE85:
 1260               	.LSM178:
 1261 0428 F0E2      		ldi r31,lo8(32)
 1262 042a DF2E      		mov r13,r31
 1263               	.LSM179:
 1264 042c 7E01      		movw r14,r28
 1265 042e 0894      		sec
 1266 0430 E11C      		adc r14,__zero_reg__
 1267 0432 F11C      		adc r15,__zero_reg__
 1268               	.L111:
 1269               	.LSM180:
 1270 0434 0E94 0000 		call adc_read
 1271               	.LVL99:
 1272 0438 9C01      		movw r18,r24
 1273               	.LSM181:
 1274 043a 892F      		mov r24,r25
 1275 043c 9927      		clr r25
 1276               	.LVL100:
 1277 043e 482F      		mov r20,r24
 1278 0440 4F70      		andi r20,lo8(15)
 1279 0442 8F70      		andi r24,lo8(15)
 1280 0444 9070      		andi r25,hi8(15)
 1281 0446 0A97      		sbiw r24,10
 1282 0448 00F4      		brsh .L105
 1283 044a 542F      		mov r21,r20
 1284 044c 505D      		subi r21,lo8(-(48))
 1285 044e 00C0      		rjmp .L106
 1286               	.L105:
 1287 0450 542F      		mov r21,r20
 1288 0452 595C      		subi r21,lo8(-(55))
 1289               	.L106:
 1290               	.LSM182:
 1291 0454 C901      		movw r24,r18
 1292               	.LVL101:
 1293 0456 74E0      		ldi r23,4
 1294 0458 9695      	1:	lsr r25
 1295 045a 8795      		ror r24
 1296 045c 7A95      		dec r23
 1297 045e 01F4      		brne 1b
 1298 0460 482F      		mov r20,r24
 1299 0462 4F70      		andi r20,lo8(15)
 1300 0464 8F70      		andi r24,lo8(15)
 1301 0466 9070      		andi r25,hi8(15)
 1302 0468 0A97      		sbiw r24,10
 1303 046a 00F4      		brsh .L107
 1304 046c 842F      		mov r24,r20
 1305 046e 805D      		subi r24,lo8(-(48))
 1306 0470 00C0      		rjmp .L108
 1307               	.L107:
 1308 0472 842F      		mov r24,r20
 1309 0474 895C      		subi r24,lo8(-(55))
 1310               	.L108:
 1311 0476 922F      		mov r25,r18
 1312               	.LVL102:
 1313 0478 9F70      		andi r25,lo8(15)
 1314               	.LSM183:
 1315 047a 2F70      		andi r18,lo8(15)
 1316 047c 3070      		andi r19,hi8(15)
 1317               	.LVL103:
 1318 047e 2A30      		cpi r18,10
 1319 0480 3105      		cpc r19,__zero_reg__
 1320 0482 00F4      		brsh .L109
 1321 0484 905D      		subi r25,lo8(-(48))
 1322 0486 00C0      		rjmp .L110
 1323               	.L109:
 1324 0488 995C      		subi r25,lo8(-(55))
 1325               	.L110:
 1326 048a 9B83      		std Y+3,r25
 1327               	.LSM184:
 1328 048c DC82      		std Y+4,r13
 1329               	.LSM185:
 1330 048e 8A83      		std Y+2,r24
 1331               	.LSM186:
 1332 0490 5983      		std Y+1,r21
 1333               	.LSM187:
 1334 0492 C701      		movw r24,r14
 1335 0494 64E0      		ldi r22,lo8(4)
 1336 0496 70E0      		ldi r23,hi8(4)
 1337 0498 0E94 0000 		call usb_serial_write
 1338               	.LVL104:
 1339               	.LSM188:
 1340 049c 0F5F      		subi r16,lo8(-(1))
 1341 049e 1F4F      		sbci r17,hi8(-(1))
 1342 04a0 0A30      		cpi r16,10
 1343 04a2 1105      		cpc r17,__zero_reg__
 1344 04a4 01F4      		brne .L111
 1345 04a6 00C0      		rjmp .L63
 1346               	.LVL105:
 1347               	.L141:
 1348               	.LSM189:
 1349 04a8 87E0      		ldi r24,lo8(7)
 1350 04aa 60E4      		ldi r22,lo8(64)
 1351 04ac 0E94 0000 		call adc_start
 1352 04b0 88E8      		ldi r24,lo8(5000)
 1353 04b2 93E1      		ldi r25,hi8(5000)
 1354               	.LVL106:
 1355               	.LBB89:
 1356               	.LBB90:
 1357               	.LBB91:
 1358               	.LBB92:
 1359               	.LSM190:
 1360 04b4 20E9      		ldi r18,lo8(400)
 1361 04b6 31E0      		ldi r19,hi8(400)
 1362               	.L112:
 1363 04b8 F901      		movw r30,r18
 1364               	.LVL107:
 1365               	/* #APP */
 1366               	 ;  105 "/usr/lib/gcc/avr/4.3.4/../../../avr/include/util/delay_basic.h" 1
 1367 04ba 3197      		1: sbiw r30,1
 1368 04bc 01F4      		brne 1b
 1369               	 ;  0 "" 2
 1370               	/* #NOAPP */
 1371               	.LBE92:
 1372               	.LBE91:
 1373               	.LSM191:
 1374 04be 0197      		sbiw r24,1
 1375               	.LSM192:
 1376 04c0 01F4      		brne .L112
 1377 04c2 01E0      		ldi r16,lo8(1)
 1378 04c4 10E0      		ldi r17,hi8(1)
 1379               	.LVL108:
 1380               	.LBE90:
 1381               	.LBE89:
 1382               	.LSM193:
 1383 04c6 60E2      		ldi r22,lo8(32)
 1384 04c8 D62E      		mov r13,r22
 1385               	.LSM194:
 1386 04ca 7E01      		movw r14,r28
 1387 04cc 0894      		sec
 1388 04ce E11C      		adc r14,__zero_reg__
 1389 04d0 F11C      		adc r15,__zero_reg__
 1390               	.L119:
 1391               	.LSM195:
 1392 04d2 0E94 0000 		call adc_read
 1393               	.LVL109:
 1394 04d6 9C01      		movw r18,r24
 1395               	.LSM196:
 1396 04d8 892F      		mov r24,r25
 1397 04da 9927      		clr r25
 1398               	.LVL110:
 1399 04dc 482F      		mov r20,r24
 1400 04de 4F70      		andi r20,lo8(15)
 1401 04e0 8F70      		andi r24,lo8(15)
 1402 04e2 9070      		andi r25,hi8(15)
 1403 04e4 0A97      		sbiw r24,10
 1404 04e6 00F4      		brsh .L113
 1405 04e8 542F      		mov r21,r20
 1406 04ea 505D      		subi r21,lo8(-(48))
 1407 04ec 00C0      		rjmp .L114
 1408               	.L113:
 1409 04ee 542F      		mov r21,r20
 1410 04f0 595C      		subi r21,lo8(-(55))
 1411               	.L114:
 1412               	.LSM197:
 1413 04f2 C901      		movw r24,r18
 1414               	.LVL111:
 1415 04f4 44E0      		ldi r20,4
 1416 04f6 9695      	1:	lsr r25
 1417 04f8 8795      		ror r24
 1418 04fa 4A95      		dec r20
 1419 04fc 01F4      		brne 1b
 1420 04fe 482F      		mov r20,r24
 1421 0500 4F70      		andi r20,lo8(15)
 1422 0502 8F70      		andi r24,lo8(15)
 1423 0504 9070      		andi r25,hi8(15)
 1424 0506 0A97      		sbiw r24,10
 1425 0508 00F4      		brsh .L115
 1426 050a 842F      		mov r24,r20
 1427 050c 805D      		subi r24,lo8(-(48))
 1428 050e 00C0      		rjmp .L116
 1429               	.L115:
 1430 0510 842F      		mov r24,r20
 1431 0512 895C      		subi r24,lo8(-(55))
 1432               	.L116:
 1433 0514 922F      		mov r25,r18
 1434               	.LVL112:
 1435 0516 9F70      		andi r25,lo8(15)
 1436               	.LSM198:
 1437 0518 2F70      		andi r18,lo8(15)
 1438 051a 3070      		andi r19,hi8(15)
 1439               	.LVL113:
 1440 051c 2A30      		cpi r18,10
 1441 051e 3105      		cpc r19,__zero_reg__
 1442 0520 00F4      		brsh .L117
 1443 0522 905D      		subi r25,lo8(-(48))
 1444 0524 00C0      		rjmp .L118
 1445               	.L117:
 1446 0526 995C      		subi r25,lo8(-(55))
 1447               	.L118:
 1448 0528 9B83      		std Y+3,r25
 1449               	.LSM199:
 1450 052a DC82      		std Y+4,r13
 1451               	.LSM200:
 1452 052c 8A83      		std Y+2,r24
 1453               	.LSM201:
 1454 052e 5983      		std Y+1,r21
 1455               	.LSM202:
 1456 0530 C701      		movw r24,r14
 1457 0532 64E0      		ldi r22,lo8(4)
 1458 0534 70E0      		ldi r23,hi8(4)
 1459 0536 0E94 0000 		call usb_serial_write
 1460               	.LVL114:
 1461               	.LSM203:
 1462 053a 0F5F      		subi r16,lo8(-(1))
 1463 053c 1F4F      		sbci r17,hi8(-(1))
 1464 053e 0A30      		cpi r16,10
 1465 0540 1105      		cpc r17,__zero_reg__
 1466 0542 01F4      		brne .L119
 1467 0544 00C0      		rjmp .L63
 1468               	.LVL115:
 1469               	.L139:
 1470               	.LSM204:
 1471 0546 81E0      		ldi r24,lo8(1)
 1472 0548 0E94 0000 		call usb_serial_putchar
 1473               	.LVL116:
 1474               	.L63:
 1475               	.LSM205:
 1476 054c 8AE0      		ldi r24,lo8(10)
 1477 054e 0E94 0000 		call usb_serial_putchar
 1478               	/* epilogue start */
 1479               	.LSM206:
 1480 0552 0F90      		pop __tmp_reg__
 1481 0554 0F90      		pop __tmp_reg__
 1482 0556 0F90      		pop __tmp_reg__
 1483 0558 0F90      		pop __tmp_reg__
 1484 055a CF91      		pop r28
 1485 055c DF91      		pop r29
 1486 055e 1F91      		pop r17
 1487               	.LVL117:
 1488 0560 0F91      		pop r16
 1489               	.LVL118:
 1490 0562 FF90      		pop r15
 1491 0564 EF90      		pop r14
 1492 0566 DF90      		pop r13
 1493 0568 0895      		ret
 1494               	.LFE9:
 1496               		.data
 1497               	.LC0:
 1498 0000 0D0A 00   		.string	"\r\n"
 1499               	.LC1:
 1500 0003 5B20 6D6F 		.string	"[ motor.c ] sk, 2010-06-28,17:11\r\n"
 1500      746F 722E 
 1500      6320 5D20 
 1500      736B 2C20 
 1500      3230 3130 
 1501               	.LC2:
 1502 0026 6669 6C65 		.string	"file: motor.c compiled : Jun 28 2010, 17:35:42\r\n"
 1502      3A20 6D6F 
 1502      746F 722E 
 1502      6320 636F 
 1502      6D70 696C 
 1503               	.LC3:
 1504 0057 6720 3D3E 		.string	"g => ping\r\n"
 1504      2070 696E 
 1504      670D 0A00 
 1505               	.LC4:
 1506 0063 7A20 3D3E 		.string	"z => ports\r\n"
 1506      2070 6F72 
 1506      7473 0D0A 
 1506      00
 1507               	.LC5:
 1508 0070 7320 3D3E 		.string	"s => set PWM\r\n"
 1508      2073 6574 
 1508      2050 574D 
 1508      0D0A 00
 1509               	.LC6:
 1510 007f 7120 3D3E 		.string	"q => query sensor\r\n"
 1510      2071 7565 
 1510      7279 2073 
 1510      656E 736F 
 1510      720D 0A00 
 1511               		.section	.text.handle_command,"ax",@progbits
 1512               	.global	handle_command
 1514               	handle_command:
 1515               	.LFB13:
 1516               	.LSM207:
 1517               	.LVL119:
 1518               	/* prologue: function */
 1519               	/* frame size = 0 */
 1520 0000 FC01      		movw r30,r24
 1521               	.LSM208:
 1522 0002 6623      		tst r22
 1523 0004 01F4      		brne .L143
 1524               	.LVL120:
 1525               	.LSM209:
 1526 0006 80E0      		ldi r24,lo8(.LC0)
 1527 0008 90E0      		ldi r25,hi8(.LC0)
 1528 000a 00C0      		rjmp .L154
 1529               	.LVL121:
 1530               	.L143:
 1531               	.LSM210:
 1532 000c 8081      		ld r24,Z
 1533 000e 8137      		cpi r24,lo8(113)
 1534 0010 01F0      		breq .L148
 1535 0012 8237      		cpi r24,lo8(114)
 1536 0014 00F4      		brsh .L152
 1537 0016 8736      		cpi r24,lo8(103)
 1538 0018 01F0      		breq .L147
 1539 001a 8836      		cpi r24,lo8(104)
 1540 001c 01F0      		breq .L146
 1541 001e 8F33      		cpi r24,lo8(63)
 1542 0020 01F4      		brne .L145
 1543 0022 00C0      		rjmp .L146
 1544               	.L152:
 1545 0024 8637      		cpi r24,lo8(118)
 1546 0026 01F0      		breq .L150
 1547 0028 8A37      		cpi r24,lo8(122)
 1548 002a 01F0      		breq .L151
 1549 002c 8337      		cpi r24,lo8(115)
 1550 002e 01F4      		brne .L145
 1551 0030 00C0      		rjmp .L155
 1552               	.L146:
 1553               	.LSM211:
 1554 0032 80E0      		ldi r24,lo8(.LC1)
 1555 0034 90E0      		ldi r25,hi8(.LC1)
 1556 0036 0E94 0000 		call send_PSTR
 1557               	.LVL122:
 1558               	.LSM212:
 1559 003a 80E0      		ldi r24,lo8(.LC2)
 1560 003c 90E0      		ldi r25,hi8(.LC2)
 1561 003e 0E94 0000 		call send_PSTR
 1562               	.LSM213:
 1563 0042 80E0      		ldi r24,lo8(__c.1572)
 1564 0044 90E0      		ldi r25,hi8(__c.1572)
 1565 0046 0E94 0000 		call send_PSTR
 1566               	.LSM214:
 1567 004a 80E0      		ldi r24,lo8(.LC3)
 1568 004c 90E0      		ldi r25,hi8(.LC3)
 1569 004e 0E94 0000 		call send_PSTR
 1570               	.LSM215:
 1571 0052 80E0      		ldi r24,lo8(.LC4)
 1572 0054 90E0      		ldi r25,hi8(.LC4)
 1573 0056 0E94 0000 		call send_PSTR
 1574               	.LSM216:
 1575 005a 80E0      		ldi r24,lo8(.LC5)
 1576 005c 90E0      		ldi r25,hi8(.LC5)
 1577 005e 0E94 0000 		call send_PSTR
 1578               	.LSM217:
 1579 0062 80E0      		ldi r24,lo8(.LC6)
 1580 0064 90E0      		ldi r25,hi8(.LC6)
 1581 0066 00C0      		rjmp .L154
 1582               	.LVL123:
 1583               	.L150:
 1584               	.LSM218:
 1585 0068 0E94 0000 		call handle_version_command
 1586               	.LVL124:
 1587 006c 0895      		ret
 1588               	.LVL125:
 1589               	.L147:
 1590               	.LSM219:
 1591 006e CF01      		movw r24,r30
 1592 0070 0E94 0000 		call handle_ping_command
 1593               	.LVL126:
 1594 0074 0895      		ret
 1595               	.LVL127:
 1596               	.L151:
 1597               	.LSM220:
 1598 0076 0E94 0000 		call handle_pwm_ports_command
 1599               	.LVL128:
 1600 007a 0895      		ret
 1601               	.LVL129:
 1602               	.L155:
 1603               	.LSM221:
 1604 007c 8181      		ldd r24,Z+1
 1605 007e 6281      		ldd r22,Z+2
 1606               	.LVL130:
 1607 0080 0E94 0000 		call handle_set_pwm_command
 1608               	.LVL131:
 1609 0084 0895      		ret
 1610               	.LVL132:
 1611               	.L148:
 1612               	.LSM222:
 1613 0086 8181      		ldd r24,Z+1
 1614 0088 0E94 0000 		call handle_sensor_query
 1615               	.LVL133:
 1616 008c 0895      		ret
 1617               	.LVL134:
 1618               	.L145:
 1619               	.LSM223:
 1620 008e 80E0      		ldi r24,lo8(__c.1581)
 1621 0090 90E0      		ldi r25,hi8(__c.1581)
 1622 0092 0E94 0000 		call send_PSTR
 1623               	.LVL135:
 1624               	.LSM224:
 1625 0096 80E0      		ldi r24,lo8(.LC2)
 1626 0098 90E0      		ldi r25,hi8(.LC2)
 1627               	.LVL136:
 1628               	.L154:
 1629 009a 0E94 0000 		call send_PSTR
 1630               	.LVL137:
 1631 009e 0895      		ret
 1632               	.LFE13:
 1634               		.section	.text.main,"ax",@progbits
 1635               	.global	main
 1637               	main:
 1638               	.LFB14:
 1639               	.LSM225:
 1640 0000 0F93      		push r16
 1641 0002 1F93      		push r17
 1642 0004 DF93      		push r29
 1643 0006 CF93      		push r28
 1644 0008 CDB7      		in r28,__SP_L__
 1645 000a DEB7      		in r29,__SP_H__
 1646 000c A097      		sbiw r28,32
 1647 000e 0FB6      		in __tmp_reg__,__SREG__
 1648 0010 F894      		cli
 1649 0012 DEBF      		out __SP_H__,r29
 1650 0014 0FBE      		out __SREG__,__tmp_reg__
 1651 0016 CDBF      		out __SP_L__,r28
 1652               	/* prologue: function */
 1653               	/* frame size = 32 */
 1654               	.LSM226:
 1655 0018 80E8      		ldi r24,lo8(-128)
 1656 001a 8093 6100 		sts 97,r24
 1657 001e 82E0      		ldi r24,lo8(2)
 1658 0020 8093 6100 		sts 97,r24
 1659               	.LSM227:
 1660 0024 0E94 0000 		call setup_pwms
 1661               	.LSM228:
 1662 0028 0E94 0000 		call usb_init
 1663               	.L157:
 1664               	.LSM229:
 1665 002c 0E94 0000 		call usb_configured
 1666 0030 8823      		tst r24
 1667 0032 01F0      		breq .L157
 1668 0034 80E1      		ldi r24,lo8(10000)
 1669 0036 97E2      		ldi r25,hi8(10000)
 1670               	.LVL138:
 1671               	.LBB93:
 1672               	.LBB94:
 1673               	.LBB95:
 1674               	.LBB96:
 1675               	.LSM230:
 1676 0038 20E9      		ldi r18,lo8(400)
 1677 003a 31E0      		ldi r19,hi8(400)
 1678               	.L158:
 1679 003c F901      		movw r30,r18
 1680               	.LVL139:
 1681               	/* #APP */
 1682               	 ;  105 "/usr/lib/gcc/avr/4.3.4/../../../avr/include/util/delay_basic.h" 1
 1683 003e 3197      		1: sbiw r30,1
 1684 0040 01F4      		brne 1b
 1685               	 ;  0 "" 2
 1686               	/* #NOAPP */
 1687               	.LBE96:
 1688               	.LBE95:
 1689               	.LSM231:
 1690 0042 0197      		sbiw r24,1
 1691               	.LSM232:
 1692 0044 01F4      		brne .L158
 1693               	.LBE94:
 1694               	.LBE93:
 1695               	.LSM233:
 1696 0046 8E01      		movw r16,r28
 1697 0048 0F5F      		subi r16,lo8(-(1))
 1698 004a 1F4F      		sbci r17,hi8(-(1))
 1699               	.LVL140:
 1700               	.L166:
 1701               	.LSM234:
 1702 004c 0E94 0000 		call usb_serial_get_control
 1703               	.LVL141:
 1704 0050 80FF      		sbrs r24,0
 1705 0052 00C0      		rjmp .L166
 1706               	.LSM235:
 1707 0054 0E94 0000 		call usb_serial_flush_input
 1708               	.L160:
 1709               	.LSM236:
 1710 0058 C801      		movw r24,r16
 1711 005a 60E2      		ldi r22,lo8(32)
 1712 005c 0E94 0000 		call recv_str
 1713 0060 682F      		mov r22,r24
 1714               	.LVL142:
 1715               	.LSM237:
 1716 0062 8F3F      		cpi r24,lo8(-1)
 1717 0064 01F0      		breq .L166
 1718               	.LVL143:
 1719               	.LSM238:
 1720 0066 C801      		movw r24,r16
 1721               	.LVL144:
 1722 0068 0E94 0000 		call handle_command
 1723               	.LVL145:
 1724 006c 00C0      		rjmp .L160
 1725               	.LFE14:
 1727               		.section	.progmem.data,"a",@progbits
 1730               	__c.1581:
 1731 0000 494E 5641 		.string	"INVALID_COMMAND_CODE"
 1731      4C49 445F 
 1731      434F 4D4D 
 1731      414E 445F 
 1731      434F 4445 
 1734               	__c.1572:
 1735 0015 7620 3D3E 		.string	"v => version\r\n"
 1735      2076 6572 
 1735      7369 6F6E 
 1735      0D0A 00
 1738               	__c.1564:
 1739 0024 0102 0304 		.string	"\001\002\003\004\005\006\007\b\n"
 1739      0506 0708 
 1739      0A00 
 1742               	__c.1547:
 1743 002e 5761 6D73 		.string	"Wamser Lamp Controller 1.0\n"
 1743      6572 204C 
 1743      616D 7020 
 1743      436F 6E74 
 1743      726F 6C6C 
 1848               	.Letext0:
DEFINED SYMBOLS
                            *ABS*:00000000 motor.c
     /tmp/cctllaLg.s:2      *ABS*:0000003f __SREG__
     /tmp/cctllaLg.s:3      *ABS*:0000003e __SP_H__
     /tmp/cctllaLg.s:4      *ABS*:0000003d __SP_L__
     /tmp/cctllaLg.s:5      *ABS*:00000034 __CCP__
     /tmp/cctllaLg.s:6      *ABS*:00000000 __tmp_reg__
     /tmp/cctllaLg.s:7      *ABS*:00000001 __zero_reg__
     /tmp/cctllaLg.s:21     .text.set_default_duty_cycles:00000000 set_default_duty_cycles
     /tmp/cctllaLg.s:65     .text.setup_pwms:00000000 setup_pwms
     /tmp/cctllaLg.s:114    .text.recv_str:00000000 recv_str
     /tmp/cctllaLg.s:190    .text.send_PSTR:00000000 send_PSTR
     /tmp/cctllaLg.s:235    .text.handle_version_command:00000000 handle_version_command
     /tmp/cctllaLg.s:1742   .progmem.data:0000002e __c.1547
     /tmp/cctllaLg.s:252    .text.handle_pwm_ports_command:00000000 handle_pwm_ports_command
     /tmp/cctllaLg.s:1738   .progmem.data:00000024 __c.1564
     /tmp/cctllaLg.s:275    .text.handle_ping_command:00000000 handle_ping_command
     /tmp/cctllaLg.s:322    .text.handle_set_pwm_command:00000000 handle_set_pwm_command
     /tmp/cctllaLg.s:439    .text.handle_sensor_query:00000000 handle_sensor_query
     /tmp/cctllaLg.s:1514   .text.handle_command:00000000 handle_command
     /tmp/cctllaLg.s:1734   .progmem.data:00000015 __c.1572
     /tmp/cctllaLg.s:1730   .progmem.data:00000000 __c.1581
     /tmp/cctllaLg.s:1637   .text.main:00000000 main

UNDEFINED SYMBOLS
__do_copy_data
__do_clear_bss
usb_serial_getchar
usb_configured
usb_serial_get_control
usb_serial_putchar
adc_start
adc_read
usb_serial_write
usb_init
usb_serial_flush_input
