   1               		.file	"arm.c"
   2               	__SREG__ = 0x3f
   3               	__SP_H__ = 0x3e
   4               	__SP_L__ = 0x3d
   5               	__CCP__  = 0x34
   6               	__tmp_reg__ = 0
   7               	__zero_reg__ = 1
   8               		.global __do_copy_data
   9               		.global __do_clear_bss
  17               	.Ltext0:
  18               		.section	.text.set_adc_port,"ax",@progbits
  19               	.global	set_adc_port
  21               	set_adc_port:
  22               	.LFB6:
  23               	.LSM0:
  24               	.LVL0:
  25               	/* prologue: function */
  26               	/* frame size = 0 */
  27               	.LSM1:
  28 0000 ECE7      		ldi r30,lo8(124)
  29 0002 F0E0      		ldi r31,hi8(124)
  30 0004 90EC      		ldi r25,lo8(-64)
  31 0006 9083      		st Z,r25
  32               	.LSM2:
  33 0008 9081      		ld r25,Z
  34 000a 982B      		or r25,r24
  35 000c 9083      		st Z,r25
  36               	/* epilogue start */
  37               	.LSM3:
  38 000e 0895      		ret
  39               	.LFE6:
  41               		.section	.text.setup_adc,"ax",@progbits
  42               	.global	setup_adc
  44               	setup_adc:
  45               	.LFB7:
  46               	.LSM4:
  47               	/* prologue: function */
  48               	/* frame size = 0 */
  49               	.LSM5:
  50 0000 80E0      		ldi r24,lo8(0)
  51 0002 90E0      		ldi r25,hi8(0)
  52               	.L4:
  53               	.LSM6:
  54 0004 FC01      		movw r30,r24
  55 0006 E050      		subi r30,lo8(-(adcl_vals))
  56 0008 F040      		sbci r31,hi8(-(adcl_vals))
  57 000a 1082      		st Z,__zero_reg__
  58               	.LSM7:
  59 000c FC01      		movw r30,r24
  60 000e E050      		subi r30,lo8(-(adch_vals))
  61 0010 F040      		sbci r31,hi8(-(adch_vals))
  62 0012 1082      		st Z,__zero_reg__
  63 0014 0196      		adiw r24,1
  64               	.LSM8:
  65 0016 8830      		cpi r24,8
  66 0018 9105      		cpc r25,__zero_reg__
  67 001a 01F4      		brne .L4
  68               	.LSM9:
  69 001c 83E0      		ldi r24,lo8(3)
  70 001e 8093 0000 		sts cur_adc_mux,r24
  71               	.LSM10:
  72 0022 83EC      		ldi r24,lo8(-61)
  73 0024 8093 7C00 		sts 124,r24
  74               	.LSM11:
  75 0028 87E8      		ldi r24,lo8(-121)
  76 002a 8093 7A00 		sts 122,r24
  77               	.LSM12:
  78 002e 86E0      		ldi r24,lo8(6)
  79 0030 8093 7B00 		sts 123,r24
  80               	/* epilogue start */
  81               	.LSM13:
  82 0034 0895      		ret
  83               	.LFE7:
  85               		.section	.text.set_default_duty_cycles,"ax",@progbits
  86               	.global	set_default_duty_cycles
  88               	set_default_duty_cycles:
  89               	.LFB8:
  90               	.LSM14:
  91               	/* prologue: function */
  92               	/* frame size = 0 */
  93               	.LSM15:
  94 0000 1092 8900 		sts 137,__zero_reg__
  95               	.LSM16:
  96 0004 1092 8800 		sts 136,__zero_reg__
  97               	.LSM17:
  98 0008 1092 8B00 		sts 139,__zero_reg__
  99               	.LSM18:
 100 000c 1092 8A00 		sts 138,__zero_reg__
 101               	.LSM19:
 102 0010 1092 8D00 		sts 141,__zero_reg__
 103               	.LSM20:
 104 0014 1092 8C00 		sts 140,__zero_reg__
 105               	.LSM21:
 106 0018 1092 9900 		sts 153,__zero_reg__
 107               	.LSM22:
 108 001c 1092 9800 		sts 152,__zero_reg__
 109               	.LSM23:
 110 0020 1092 9B00 		sts 155,__zero_reg__
 111               	.LSM24:
 112 0024 1092 9A00 		sts 154,__zero_reg__
 113               	.LSM25:
 114 0028 1092 9D00 		sts 157,__zero_reg__
 115               	.LSM26:
 116 002c 1092 9C00 		sts 156,__zero_reg__
 117               	/* epilogue start */
 118               	.LSM27:
 119 0030 0895      		ret
 120               	.LFE8:
 122               		.section	.text.setup_pwms,"ax",@progbits
 123               	.global	setup_pwms
 125               	setup_pwms:
 126               	.LFB9:
 127               	.LSM28:
 128               	/* prologue: function */
 129               	/* frame size = 0 */
 130               	.LSM29:
 131 0000 80EE      		ldi r24,lo8(-32)
 132 0002 84B9      		out 36-32,r24
 133               	.LSM30:
 134 0004 80E7      		ldi r24,lo8(112)
 135 0006 87B9      		out 39-32,r24
 136               	.LSM31:
 137 0008 1092 8900 		sts (136)+1,__zero_reg__
 138 000c 1092 8800 		sts 136,__zero_reg__
 139               	.LSM32:
 140 0010 1092 8B00 		sts (138)+1,__zero_reg__
 141 0014 1092 8A00 		sts 138,__zero_reg__
 142               	.LSM33:
 143 0018 1092 8D00 		sts (140)+1,__zero_reg__
 144 001c 1092 8C00 		sts 140,__zero_reg__
 145               	.LSM34:
 146 0020 98EA      		ldi r25,lo8(-88)
 147 0022 9093 8000 		sts 128,r25
 148               	.LSM35:
 149 0026 82E1      		ldi r24,lo8(18)
 150 0028 8093 8100 		sts 129,r24
 151               	.LSM36:
 152 002c 1092 8500 		sts 133,__zero_reg__
 153               	.LSM37:
 154 0030 1092 8400 		sts 132,__zero_reg__
 155               	.LSM38:
 156 0034 1092 9900 		sts (152)+1,__zero_reg__
 157 0038 1092 9800 		sts 152,__zero_reg__
 158               	.LSM39:
 159 003c 1092 9B00 		sts (154)+1,__zero_reg__
 160 0040 1092 9A00 		sts 154,__zero_reg__
 161               	.LSM40:
 162 0044 1092 9D00 		sts (156)+1,__zero_reg__
 163 0048 1092 9C00 		sts 156,__zero_reg__
 164               	.LSM41:
 165 004c 9093 9000 		sts 144,r25
 166               	.LSM42:
 167 0050 8093 9100 		sts 145,r24
 168               	.LSM43:
 169 0054 1092 9500 		sts 149,__zero_reg__
 170               	.LSM44:
 171 0058 1092 9400 		sts 148,__zero_reg__
 172               	.LSM45:
 173 005c 80E2      		ldi r24,lo8(20000)
 174 005e 9EE4      		ldi r25,hi8(20000)
 175 0060 9093 8700 		sts (134)+1,r25
 176 0064 8093 8600 		sts 134,r24
 177               	.LSM46:
 178 0068 9093 9700 		sts (150)+1,r25
 179 006c 8093 9600 		sts 150,r24
 180               	/* epilogue start */
 181               	.LSM47:
 182 0070 0895      		ret
 183               	.LFE9:
 185               		.section	.text.handle_query_pwm_command,"ax",@progbits
 186               	.global	handle_query_pwm_command
 188               	handle_query_pwm_command:
 189               	.LFB10:
 190               	.LSM48:
 191               	.LVL1:
 192               	/* prologue: function */
 193               	/* frame size = 0 */
 194               	/* epilogue start */
 195               	.LSM49:
 196 0000 0895      		ret
 197               	.LFE10:
 199               		.section	.text.send_str,"ax",@progbits
 200               	.global	send_str
 202               	send_str:
 203               	.LFB19:
 204               	.LSM50:
 205               	.LVL2:
 206 0000 CF93      		push r28
 207 0002 DF93      		push r29
 208               	/* prologue: function */
 209               	/* frame size = 0 */
 210 0004 EC01      		movw r28,r24
 211               	.LVL3:
 212               	.L15:
 213               	.LSM51:
 214 0006 FE01      		movw r30,r28
 215               	.LVL4:
 216               	.LBB19:
 217               	.LSM52:
 218 0008 2196      		adiw r28,1
 219               	/* #APP */
 220               	 ;  273 "arm.c" 1
 221 000a 8491      		lpm r24, Z
 222               		
 223               	 ;  0 "" 2
 224               	.LVL5:
 225               	/* #NOAPP */
 226               	.LBE19:
 227               	.LSM53:
 228 000c 8823      		tst r24
 229 000e 01F0      		breq .L16
 230               	.LSM54:
 231 0010 0E94 0000 		call usb_serial_putchar
 232               	.LVL6:
 233 0014 00C0      		rjmp .L15
 234               	.LVL7:
 235               	.L16:
 236               	/* epilogue start */
 237               	.LSM55:
 238 0016 DF91      		pop r29
 239 0018 CF91      		pop r28
 240               	.LVL8:
 241 001a 0895      		ret
 242               	.LFE19:
 244               		.section	.text.parse_and_execute_command,"ax",@progbits
 245               	.global	parse_and_execute_command
 247               	parse_and_execute_command:
 248               	.LFB21:
 249               	.LSM56:
 250               	.LVL9:
 251 0000 CF93      		push r28
 252 0002 DF93      		push r29
 253               	/* prologue: function */
 254               	/* frame size = 0 */
 255 0004 EC01      		movw r28,r24
 256               	.LSM57:
 257 0006 6330      		cpi r22,lo8(3)
 258 0008 00F4      		brsh .L18
 259               	.LVL10:
 260               	.LSM58:
 261 000a 80E0      		ldi r24,lo8(__c.1593)
 262 000c 90E0      		ldi r25,hi8(__c.1593)
 263 000e 00C0      		rjmp .L31
 264               	.LVL11:
 265               	.L18:
 266               	.LSM59:
 267 0010 8881      		ld r24,Y
 268 0012 982F      		mov r25,r24
 269               	.LVL12:
 270 0014 9154      		subi r25,lo8(-(-65))
 271 0016 9630      		cpi r25,lo8(6)
 272 0018 00F0      		brlo .L20
 273               	.LSM60:
 274 001a 9052      		subi r25,lo8(-(-32))
 275 001c 9630      		cpi r25,lo8(6)
 276 001e 00F0      		brlo .L20
 277               	.LSM61:
 278 0020 80E0      		ldi r24,lo8(__c.1595)
 279 0022 90E0      		ldi r25,hi8(__c.1595)
 280 0024 0E94 0000 		call send_str
 281               	.LVL13:
 282               	.LSM62:
 283 0028 8881      		ld r24,Y
 284 002a 0E94 0000 		call usb_serial_putchar
 285               	.LSM63:
 286 002e 80E0      		ldi r24,lo8(__c.1597)
 287 0030 90E0      		ldi r25,hi8(__c.1597)
 288 0032 00C0      		rjmp .L31
 289               	.LVL14:
 290               	.L20:
 291               	.LSM64:
 292 0034 2981      		ldd r18,Y+1
 293               	.LVL15:
 294 0036 2053      		subi r18,lo8(-(-48))
 295 0038 2830      		cpi r18,lo8(8)
 296 003a 00F4      		brsh .L21
 297               	.LSM65:
 298 003c 8A81      		ldd r24,Y+2
 299 003e 8F33      		cpi r24,lo8(63)
 300 0040 01F4      		brne .L30
 301 0042 00C0      		rjmp .L33
 302               	.L21:
 303               	.LSM66:
 304 0044 80E0      		ldi r24,lo8(__c.1599)
 305 0046 90E0      		ldi r25,hi8(__c.1599)
 306 0048 0E94 0000 		call send_str
 307               	.LVL16:
 308               	.LSM67:
 309 004c 8881      		ld r24,Y
 310 004e 0E94 0000 		call usb_serial_putchar
 311               	.LSM68:
 312 0052 80E0      		ldi r24,lo8(__c.1601)
 313 0054 90E0      		ldi r25,hi8(__c.1601)
 314 0056 00C0      		rjmp .L31
 315               	.LVL17:
 316               	.L33:
 317               	.LSM69:
 318 0058 E3E0      		ldi r30,lo8(3)
 319 005a 9E9F      		mul r25,r30
 320 005c F001      		movw r30,r0
 321 005e 1124      		clr r1
 322 0060 81E0      		ldi r24,lo8(1)
 323 0062 90E0      		ldi r25,hi8(1)
 324 0064 00C0      		rjmp 2f
 325 0066 880F      	1:	lsl r24
 326 0068 991F      		rol r25
 327 006a 2A95      	2:	dec r18
 328 006c 02F4      		brpl 1b
 329 006e 382F      		mov r19,r24
 330 0070 3095      		com r19
 331 0072 21A1      		ldd r18,Z+33
 332               	.LVL18:
 333 0074 2323      		and r18,r19
 334 0076 21A3      		std Z+33,r18
 335               	.LSM70:
 336 0078 20A1      		ldd r18,Z+32
 337 007a 8223      		and r24,r18
 338 007c 01F4      		brne .L24
 339 007e 80E3      		ldi r24,lo8(48)
 340 0080 00C0      		rjmp .L25
 341               	.L24:
 342 0082 81E3      		ldi r24,lo8(49)
 343               	.L25:
 344 0084 0E94 0000 		call usb_serial_putchar
 345               	.LVL19:
 346               	.LSM71:
 347 0088 80E0      		ldi r24,lo8(__c.1603)
 348 008a 90E0      		ldi r25,hi8(__c.1603)
 349 008c 00C0      		rjmp .L31
 350               	.LVL20:
 351               	.L30:
 352               	.LSM72:
 353 008e 6330      		cpi r22,lo8(3)
 354 0090 01F0      		breq .L26
 355 0092 8D33      		cpi r24,lo8(61)
 356 0094 01F4      		brne .L26
 357               	.LSM73:
 358 0096 8B81      		ldd r24,Y+3
 359 0098 8033      		cpi r24,lo8(48)
 360 009a 01F4      		brne .L27
 361               	.LSM74:
 362 009c E3E0      		ldi r30,lo8(3)
 363 009e 9E9F      		mul r25,r30
 364 00a0 F001      		movw r30,r0
 365 00a2 1124      		clr r1
 366 00a4 81E0      		ldi r24,lo8(1)
 367 00a6 90E0      		ldi r25,hi8(1)
 368 00a8 00C0      		rjmp 2f
 369 00aa 880F      	1:	lsl r24
 370 00ac 991F      		rol r25
 371 00ae 2A95      	2:	dec r18
 372 00b0 02F4      		brpl 1b
 373 00b2 21A1      		ldd r18,Z+33
 374               	.LVL21:
 375 00b4 282B      		or r18,r24
 376 00b6 21A3      		std Z+33,r18
 377               	.LSM75:
 378 00b8 8095      		com r24
 379 00ba 22A1      		ldd r18,Z+34
 380 00bc 2823      		and r18,r24
 381 00be 00C0      		rjmp .L32
 382               	.LVL22:
 383               	.L27:
 384               	.LSM76:
 385 00c0 8133      		cpi r24,lo8(49)
 386 00c2 01F4      		brne .L28
 387               	.LSM77:
 388 00c4 E3E0      		ldi r30,lo8(3)
 389 00c6 9E9F      		mul r25,r30
 390 00c8 F001      		movw r30,r0
 391 00ca 1124      		clr r1
 392 00cc 81E0      		ldi r24,lo8(1)
 393 00ce 90E0      		ldi r25,hi8(1)
 394 00d0 00C0      		rjmp 2f
 395 00d2 880F      	1:	lsl r24
 396 00d4 991F      		rol r25
 397 00d6 2A95      	2:	dec r18
 398 00d8 02F4      		brpl 1b
 399 00da 21A1      		ldd r18,Z+33
 400               	.LVL23:
 401 00dc 282B      		or r18,r24
 402 00de 21A3      		std Z+33,r18
 403               	.LSM78:
 404 00e0 22A1      		ldd r18,Z+34
 405 00e2 282B      		or r18,r24
 406               	.L32:
 407 00e4 22A3      		std Z+34,r18
 408 00e6 00C0      		rjmp .L29
 409               	.LVL24:
 410               	.L28:
 411               	.LSM79:
 412 00e8 80E0      		ldi r24,lo8(__c.1605)
 413 00ea 90E0      		ldi r25,hi8(__c.1605)
 414 00ec 0E94 0000 		call send_str
 415               	.LVL25:
 416               	.LSM80:
 417 00f0 8B81      		ldd r24,Y+3
 418 00f2 0E94 0000 		call usb_serial_putchar
 419               	.LSM81:
 420 00f6 80E0      		ldi r24,lo8(__c.1607)
 421 00f8 90E0      		ldi r25,hi8(__c.1607)
 422 00fa 00C0      		rjmp .L31
 423               	.LVL26:
 424               	.L26:
 425               	.LSM82:
 426 00fc 80E0      		ldi r24,lo8(__c.1609)
 427 00fe 90E0      		ldi r25,hi8(__c.1609)
 428 0100 0E94 0000 		call send_str
 429               	.LVL27:
 430               	.LSM83:
 431 0104 8881      		ld r24,Y
 432 0106 0E94 0000 		call usb_serial_putchar
 433               	.LSM84:
 434 010a 80E0      		ldi r24,lo8(__c.1611)
 435 010c 90E0      		ldi r25,hi8(__c.1611)
 436               	.LVL28:
 437               	.L31:
 438 010e 0E94 0000 		call send_str
 439               	.LVL29:
 440               	.L29:
 441               	/* epilogue start */
 442               	.LSM85:
 443 0112 DF91      		pop r29
 444 0114 CF91      		pop r28
 445               	.LVL30:
 446 0116 0895      		ret
 447               	.LFE21:
 449               		.section	.text.handle_query_adc_command,"ax",@progbits
 450               	.global	handle_query_adc_command
 452               	handle_query_adc_command:
 453               	.LFB16:
 454               	.LSM86:
 455               	.LVL31:
 456 0000 0F93      		push r16
 457 0002 1F93      		push r17
 458               	/* prologue: function */
 459               	/* frame size = 0 */
 460               	.LSM87:
 461 0004 8091 7A00 		lds r24,122
 462               	.LVL32:
 463 0008 8064      		ori r24,lo8(64)
 464 000a 8093 7A00 		sts 122,r24
 465               	.L35:
 466               	.LSM88:
 467 000e 8091 7A00 		lds r24,122
 468 0012 84FF      		sbrs r24,4
 469 0014 00C0      		rjmp .L35
 470               	.LSM89:
 471 0016 1091 7800 		lds r17,120
 472               	.LVL33:
 473               	.LSM90:
 474 001a 0091 7900 		lds r16,121
 475               	.LVL34:
 476               	.LSM91:
 477 001e 87E0      		ldi r24,lo8(7)
 478 0020 0E94 0000 		call usb_serial_putchar
 479               	.LSM92:
 480 0024 83E0      		ldi r24,lo8(3)
 481 0026 0E94 0000 		call usb_serial_putchar
 482               	.LSM93:
 483 002a 812F      		mov r24,r17
 484 002c 0E94 0000 		call usb_serial_putchar
 485               	.LSM94:
 486 0030 802F      		mov r24,r16
 487 0032 0E94 0000 		call usb_serial_putchar
 488               	.LSM95:
 489 0036 8AE0      		ldi r24,lo8(10)
 490 0038 0E94 0000 		call usb_serial_putchar
 491               	/* epilogue start */
 492               	.LSM96:
 493 003c 1F91      		pop r17
 494               	.LVL35:
 495 003e 0F91      		pop r16
 496               	.LVL36:
 497 0040 0895      		ret
 498               	.LFE16:
 500               		.data
 501               	.LC0:
 502 0000 0603 0A00 		.string	"\006\003\n"
 503               		.section	.text.handle_adc_ports_command,"ax",@progbits
 504               	.global	handle_adc_ports_command
 506               	handle_adc_ports_command:
 507               	.LFB15:
 508               	.LSM97:
 509               	/* prologue: function */
 510               	/* frame size = 0 */
 511               	.LSM98:
 512 0000 80E0      		ldi r24,lo8(.LC0)
 513 0002 90E0      		ldi r25,hi8(.LC0)
 514 0004 0E94 0000 		call usb_serial_putchar
 515               	/* epilogue start */
 516               	.LSM99:
 517 0008 0895      		ret
 518               	.LFE15:
 520               		.section	.text.handle_pwm_ports_command,"ax",@progbits
 521               	.global	handle_pwm_ports_command
 523               	handle_pwm_ports_command:
 524               	.LFB14:
 525               	.LSM100:
 526               	/* prologue: function */
 527               	/* frame size = 0 */
 528               	.LSM101:
 529 0000 83E0      		ldi r24,lo8(3)
 530 0002 0E94 0000 		call usb_serial_putchar
 531               	.LSM102:
 532 0006 80E0      		ldi r24,lo8(0)
 533 0008 0E94 0000 		call usb_serial_putchar
 534               	.LSM103:
 535 000c 80E0      		ldi r24,lo8(__c.1490)
 536 000e 90E0      		ldi r25,hi8(__c.1490)
 537 0010 0E94 0000 		call send_str
 538               	/* epilogue start */
 539               	.LSM104:
 540 0014 0895      		ret
 541               	.LFE14:
 543               		.section	.text.handle_ping_command,"ax",@progbits
 544               	.global	handle_ping_command
 546               	handle_ping_command:
 547               	.LFB13:
 548               	.LSM105:
 549               	.LVL37:
 550 0000 FF92      		push r15
 551 0002 0F93      		push r16
 552 0004 1F93      		push r17
 553 0006 CF93      		push r28
 554 0008 DF93      		push r29
 555               	/* prologue: function */
 556               	/* frame size = 0 */
 557 000a 182F      		mov r17,r24
 558 000c 092F      		mov r16,r25
 559               	.LVL38:
 560 000e F62E      		mov r15,r22
 561               	.LSM106:
 562 0010 82E0      		ldi r24,lo8(2)
 563               	.LVL39:
 564 0012 0E94 0000 		call usb_serial_putchar
 565               	.LVL40:
 566 0016 212F      		mov r18,r17
 567 0018 302F      		mov r19,r16
 568 001a C901      		movw r24,r18
 569 001c EC01      		movw r28,r24
 570 001e 11E0      		ldi r17,lo8(1)
 571               	.LVL41:
 572 0020 00C0      		rjmp .L43
 573               	.L44:
 574               	.LSM107:
 575 0022 8881      		ld r24,Y
 576 0024 0E94 0000 		call usb_serial_putchar
 577               	.LSM108:
 578 0028 1F5F      		subi r17,lo8(-(1))
 579               	.L43:
 580 002a 2196      		adiw r28,1
 581               	.LSM109:
 582 002c 1F15      		cp r17,r15
 583 002e 00F0      		brlo .L44
 584               	.LSM110:
 585 0030 8AE0      		ldi r24,lo8(10)
 586 0032 0E94 0000 		call usb_serial_putchar
 587               	/* epilogue start */
 588               	.LSM111:
 589 0036 DF91      		pop r29
 590 0038 CF91      		pop r28
 591 003a 1F91      		pop r17
 592               	.LVL42:
 593 003c 0F91      		pop r16
 594               	.LVL43:
 595 003e FF90      		pop r15
 596               	.LVL44:
 597 0040 0895      		ret
 598               	.LFE13:
 600               		.section	.text.handle_version_command,"ax",@progbits
 601               	.global	handle_version_command
 603               	handle_version_command:
 604               	.LFB12:
 605               	.LSM112:
 606               	/* prologue: function */
 607               	/* frame size = 0 */
 608               	.LSM113:
 609 0000 80E0      		ldi r24,lo8(0)
 610 0002 0E94 0000 		call usb_serial_putchar
 611               	.LSM114:
 612 0006 80E0      		ldi r24,lo8(__c.1473)
 613 0008 90E0      		ldi r25,hi8(__c.1473)
 614 000a 0E94 0000 		call send_str
 615               	/* epilogue start */
 616               	.LSM115:
 617 000e 0895      		ret
 618               	.LFE12:
 620               		.section	.text.handle_set_pwm_command,"ax",@progbits
 621               	.global	handle_set_pwm_command
 623               	handle_set_pwm_command:
 624               	.LFB11:
 625               	.LSM116:
 626               	.LVL45:
 627 0000 FF92      		push r15
 628 0002 0F93      		push r16
 629 0004 1F93      		push r17
 630               	/* prologue: function */
 631               	/* frame size = 0 */
 632 0006 182F      		mov r17,r24
 633 0008 F62E      		mov r15,r22
 634 000a 042F      		mov r16,r20
 635               	.LSM117:
 636 000c 84E0      		ldi r24,lo8(4)
 637               	.LVL46:
 638 000e 0E94 0000 		call usb_serial_putchar
 639               	.LVL47:
 640               	.LSM118:
 641 0012 812F      		mov r24,r17
 642 0014 0E94 0000 		call usb_serial_putchar
 643               	.LSM119:
 644 0018 1230      		cpi r17,lo8(2)
 645 001a 01F0      		breq .L52
 646 001c 1330      		cpi r17,lo8(3)
 647 001e 00F4      		brsh .L56
 648 0020 1123      		tst r17
 649 0022 01F0      		breq .L50
 650 0024 1130      		cpi r17,lo8(1)
 651 0026 01F4      		brne .L49
 652 0028 00C0      		rjmp .L58
 653               	.L56:
 654 002a 1430      		cpi r17,lo8(4)
 655 002c 01F0      		breq .L54
 656 002e 1430      		cpi r17,lo8(4)
 657 0030 00F0      		brlo .L53
 658 0032 1530      		cpi r17,lo8(5)
 659 0034 01F4      		brne .L49
 660 0036 00C0      		rjmp .L59
 661               	.L50:
 662               	.LSM120:
 663 0038 0093 8900 		sts 137,r16
 664               	.LSM121:
 665 003c F092 8800 		sts 136,r15
 666 0040 00C0      		rjmp .L49
 667               	.L58:
 668               	.LSM122:
 669 0042 0093 8B00 		sts 139,r16
 670               	.LSM123:
 671 0046 F092 8A00 		sts 138,r15
 672 004a 00C0      		rjmp .L49
 673               	.L52:
 674               	.LSM124:
 675 004c 0093 8D00 		sts 141,r16
 676               	.LSM125:
 677 0050 F092 8C00 		sts 140,r15
 678 0054 00C0      		rjmp .L49
 679               	.L53:
 680               	.LSM126:
 681 0056 0093 9900 		sts 153,r16
 682               	.LSM127:
 683 005a F092 9800 		sts 152,r15
 684 005e 00C0      		rjmp .L49
 685               	.L54:
 686               	.LSM128:
 687 0060 0093 9B00 		sts 155,r16
 688               	.LSM129:
 689 0064 F092 9A00 		sts 154,r15
 690 0068 00C0      		rjmp .L49
 691               	.L59:
 692               	.LSM130:
 693 006a 0093 9D00 		sts 157,r16
 694               	.LSM131:
 695 006e F092 9C00 		sts 156,r15
 696               	.L49:
 697               	.LSM132:
 698 0072 80E0      		ldi r24,lo8(0)
 699 0074 0E94 0000 		call usb_serial_putchar
 700               	.LSM133:
 701 0078 8AE0      		ldi r24,lo8(10)
 702 007a 0E94 0000 		call usb_serial_putchar
 703               	/* epilogue start */
 704               	.LSM134:
 705 007e 1F91      		pop r17
 706               	.LVL48:
 707 0080 0F91      		pop r16
 708               	.LVL49:
 709 0082 FF90      		pop r15
 710               	.LVL50:
 711 0084 0895      		ret
 712               	.LFE11:
 714               		.section	.text.handle_command,"ax",@progbits
 715               	.global	handle_command
 717               	handle_command:
 718               	.LFB17:
 719               	.LSM135:
 720               	.LVL51:
 721               	/* prologue: function */
 722               	/* frame size = 0 */
 723 0000 FC01      		movw r30,r24
 724               	.LSM136:
 725 0002 6623      		tst r22
 726 0004 01F0      		breq .L70
 727               	.LVL52:
 728               	.LSM137:
 729 0006 8081      		ld r24,Z
 730 0008 8430      		cpi r24,lo8(4)
 731 000a 01F0      		breq .L66
 732 000c 8530      		cpi r24,lo8(5)
 733 000e 00F4      		brsh .L69
 734 0010 8130      		cpi r24,lo8(1)
 735 0012 01F0      		breq .L64
 736 0014 8130      		cpi r24,lo8(1)
 737 0016 00F0      		brlo .L63
 738 0018 8330      		cpi r24,lo8(3)
 739 001a 01F4      		brne .L62
 740 001c 00C0      		rjmp .L71
 741               	.L69:
 742 001e 8630      		cpi r24,lo8(6)
 743 0020 01F0      		breq .L67
 744 0022 8630      		cpi r24,lo8(6)
 745 0024 00F0      		brlo .L70
 746 0026 8730      		cpi r24,lo8(7)
 747 0028 01F4      		brne .L62
 748 002a 00C0      		rjmp .L72
 749               	.L63:
 750               	.LSM138:
 751 002c 0E94 0000 		call handle_version_command
 752               	.LVL53:
 753 0030 0895      		ret
 754               	.LVL54:
 755               	.L64:
 756               	.LSM139:
 757 0032 CF01      		movw r24,r30
 758 0034 0E94 0000 		call handle_ping_command
 759               	.LVL55:
 760 0038 0895      		ret
 761               	.LVL56:
 762               	.L71:
 763               	.LSM140:
 764 003a 0E94 0000 		call handle_pwm_ports_command
 765               	.LVL57:
 766 003e 0895      		ret
 767               	.LVL58:
 768               	.L66:
 769               	.LSM141:
 770 0040 8181      		ldd r24,Z+1
 771 0042 6281      		ldd r22,Z+2
 772               	.LVL59:
 773 0044 4381      		ldd r20,Z+3
 774 0046 0E94 0000 		call handle_set_pwm_command
 775               	.LVL60:
 776 004a 0895      		ret
 777               	.LVL61:
 778               	.L67:
 779               	.LBB20:
 780               	.LBB21:
 781               	.LSM142:
 782 004c 80E0      		ldi r24,lo8(.LC0)
 783 004e 90E0      		ldi r25,hi8(.LC0)
 784 0050 0E94 0000 		call usb_serial_putchar
 785               	.LVL62:
 786 0054 0895      		ret
 787               	.LVL63:
 788               	.L72:
 789               	.LBE21:
 790               	.LBE20:
 791               	.LSM143:
 792 0056 8181      		ldd r24,Z+1
 793 0058 0E94 0000 		call handle_query_adc_command
 794               	.LVL64:
 795 005c 0895      		ret
 796               	.LVL65:
 797               	.L62:
 798               	.LSM144:
 799 005e 80E0      		ldi r24,lo8(__c.1526)
 800 0060 90E0      		ldi r25,hi8(__c.1526)
 801 0062 0E94 0000 		call send_str
 802               	.LVL66:
 803               	.L70:
 804 0066 0895      		ret
 805               	.LFE17:
 807               		.section	.text.recv_str,"ax",@progbits
 808               	.global	recv_str
 810               	recv_str:
 811               	.LFB20:
 812               	.LSM145:
 813               	.LVL67:
 814 0000 0F93      		push r16
 815 0002 1F93      		push r17
 816 0004 CF93      		push r28
 817 0006 DF93      		push r29
 818               	/* prologue: function */
 819               	/* frame size = 0 */
 820 0008 EC01      		movw r28,r24
 821 000a 062F      		mov r16,r22
 822               	.LSM146:
 823 000c 10E0      		ldi r17,lo8(0)
 824               	.LVL68:
 825 000e 00C0      		rjmp .L80
 826               	.LVL69:
 827               	.L78:
 828               	.LSM147:
 829 0010 0E94 0000 		call usb_serial_getchar
 830               	.LVL70:
 831               	.LSM148:
 832 0014 2FEF      		ldi r18,hi8(-1)
 833 0016 8F3F      		cpi r24,lo8(-1)
 834 0018 9207      		cpc r25,r18
 835               	.LVL71:
 836 001a 01F0      		breq .L75
 837               	.LSM149:
 838 001c 8D30      		cpi r24,13
 839 001e 9105      		cpc r25,__zero_reg__
 840 0020 01F0      		breq .L76
 841 0022 8A30      		cpi r24,10
 842 0024 9105      		cpc r25,__zero_reg__
 843 0026 01F0      		breq .L76
 844               	.LSM150:
 845 0028 8993      		st Y+,r24
 846               	.LSM151:
 847 002a 1F5F      		subi r17,lo8(-(1))
 848 002c 00C0      		rjmp .L80
 849               	.L75:
 850               	.LSM152:
 851 002e 0E94 0000 		call usb_configured
 852               	.LVL72:
 853 0032 8823      		tst r24
 854 0034 01F0      		breq .L77
 855 0036 0E94 0000 		call usb_serial_get_control
 856 003a 80FF      		sbrs r24,0
 857 003c 00C0      		rjmp .L77
 858               	.LVL73:
 859               	.L80:
 860               	.LSM153:
 861 003e 1017      		cp r17,r16
 862 0040 00F0      		brlo .L78
 863 0042 00C0      		rjmp .L76
 864               	.LVL74:
 865               	.L77:
 866 0044 1FEF      		ldi r17,lo8(-1)
 867               	.LVL75:
 868               	.L76:
 869               	.LSM154:
 870 0046 812F      		mov r24,r17
 871               	.LVL76:
 872               	/* epilogue start */
 873 0048 DF91      		pop r29
 874 004a CF91      		pop r28
 875               	.LVL77:
 876 004c 1F91      		pop r17
 877               	.LVL78:
 878 004e 0F91      		pop r16
 879               	.LVL79:
 880 0050 0895      		ret
 881               	.LFE20:
 883               		.section	.text.main,"ax",@progbits
 884               	.global	main
 886               	main:
 887               	.LFB18:
 888               	.LSM155:
 889 0000 0F93      		push r16
 890 0002 1F93      		push r17
 891 0004 DF93      		push r29
 892 0006 CF93      		push r28
 893 0008 CDB7      		in r28,__SP_L__
 894 000a DEB7      		in r29,__SP_H__
 895 000c A097      		sbiw r28,32
 896 000e 0FB6      		in __tmp_reg__,__SREG__
 897 0010 F894      		cli
 898 0012 DEBF      		out __SP_H__,r29
 899 0014 0FBE      		out __SREG__,__tmp_reg__
 900 0016 CDBF      		out __SP_L__,r28
 901               	/* prologue: function */
 902               	/* frame size = 32 */
 903               	.LSM156:
 904 0018 80E8      		ldi r24,lo8(-128)
 905 001a 8093 6100 		sts 97,r24
 906 001e 1092 6100 		sts 97,__zero_reg__
 907               	.LSM157:
 908 0022 0E94 0000 		call setup_pwms
 909 0026 80E0      		ldi r24,lo8(0)
 910 0028 90E0      		ldi r25,hi8(0)
 911               	.L82:
 912               	.LBB22:
 913               	.LBB23:
 914               	.LSM158:
 915 002a FC01      		movw r30,r24
 916 002c E050      		subi r30,lo8(-(adcl_vals))
 917 002e F040      		sbci r31,hi8(-(adcl_vals))
 918 0030 1082      		st Z,__zero_reg__
 919               	.LSM159:
 920 0032 FC01      		movw r30,r24
 921 0034 E050      		subi r30,lo8(-(adch_vals))
 922 0036 F040      		sbci r31,hi8(-(adch_vals))
 923 0038 1082      		st Z,__zero_reg__
 924 003a 0196      		adiw r24,1
 925               	.LSM160:
 926 003c 8830      		cpi r24,8
 927 003e 9105      		cpc r25,__zero_reg__
 928 0040 01F4      		brne .L82
 929               	.LSM161:
 930 0042 83E0      		ldi r24,lo8(3)
 931 0044 8093 0000 		sts cur_adc_mux,r24
 932               	.LSM162:
 933 0048 83EC      		ldi r24,lo8(-61)
 934 004a 8093 7C00 		sts 124,r24
 935               	.LSM163:
 936 004e 87E8      		ldi r24,lo8(-121)
 937 0050 8093 7A00 		sts 122,r24
 938               	.LSM164:
 939 0054 86E0      		ldi r24,lo8(6)
 940 0056 8093 7B00 		sts 123,r24
 941               	.LBE23:
 942               	.LBE22:
 943               	.LSM165:
 944 005a 0E94 0000 		call usb_init
 945               	.L83:
 946               	.LSM166:
 947 005e 0E94 0000 		call usb_configured
 948 0062 8823      		tst r24
 949 0064 01F0      		breq .L83
 950 0066 80E1      		ldi r24,lo8(10000)
 951 0068 97E2      		ldi r25,hi8(10000)
 952               	.LVL80:
 953               	.LBB24:
 954               	.LBB25:
 955               	.LBB26:
 956               	.LBB27:
 957               	.LSM167:
 958 006a 20E9      		ldi r18,lo8(400)
 959 006c 31E0      		ldi r19,hi8(400)
 960               	.L84:
 961 006e F901      		movw r30,r18
 962               	.LVL81:
 963               	/* #APP */
 964               	 ;  105 "/usr/lib/gcc/avr/4.3.4/../../../avr/include/util/delay_basic.h" 1
 965 0070 3197      		1: sbiw r30,1
 966 0072 01F4      		brne 1b
 967               	 ;  0 "" 2
 968               	/* #NOAPP */
 969               	.LBE27:
 970               	.LBE26:
 971               	.LSM168:
 972 0074 0197      		sbiw r24,1
 973               	.LSM169:
 974 0076 01F4      		brne .L84
 975               	.LBE25:
 976               	.LBE24:
 977               	.LSM170:
 978 0078 8E01      		movw r16,r28
 979 007a 0F5F      		subi r16,lo8(-(1))
 980 007c 1F4F      		sbci r17,hi8(-(1))
 981               	.LVL82:
 982               	.L93:
 983               	.LSM171:
 984 007e 0E94 0000 		call usb_serial_get_control
 985               	.LVL83:
 986 0082 80FF      		sbrs r24,0
 987 0084 00C0      		rjmp .L93
 988               	.LSM172:
 989 0086 0E94 0000 		call usb_serial_flush_input
 990               	.L86:
 991               	.LSM173:
 992 008a C801      		movw r24,r16
 993 008c 60E2      		ldi r22,lo8(32)
 994 008e 0E94 0000 		call recv_str
 995 0092 682F      		mov r22,r24
 996               	.LVL84:
 997               	.LSM174:
 998 0094 8F3F      		cpi r24,lo8(-1)
 999 0096 01F0      		breq .L93
 1000               	.LVL85:
 1001               	.LSM175:
 1002 0098 C801      		movw r24,r16
 1003               	.LVL86:
 1004 009a 0E94 0000 		call handle_command
 1005               	.LVL87:
 1006 009e 00C0      		rjmp .L86
 1007               	.LFE18:
 1009               		.section	.progmem.data,"a",@progbits
 1012               	__c.1611:
 1013 0000 222C 206D 		.string	"\", must be ? or =\r\n"
 1013      7573 7420 
 1013      6265 203F 
 1013      206F 7220 
 1013      3D0D 0A00 
 1016               	__c.1609:
 1017 0014 556E 6B6E 		.string	"Unknown command \""
 1017      6F77 6E20 
 1017      636F 6D6D 
 1017      616E 6420 
 1017      2200 
 1020               	__c.1607:
 1021 0026 222C 206D 		.string	"\", must be 0 or 1\r\n"
 1021      7573 7420 
 1021      6265 2030 
 1021      206F 7220 
 1021      310D 0A00 
 1024               	__c.1605:
 1025 003a 556E 6B6E 		.string	"Unknown value \""
 1025      6F77 6E20 
 1025      7661 6C75 
 1025      6520 2200 
 1028               	__c.1603:
 1029 004a 0D0A 00   		.string	"\r\n"
 1032               	__c.1601:
 1033 004d 222C 206D 		.string	"\", must be 0 to 7\r\n"
 1033      7573 7420 
 1033      6265 2030 
 1033      2074 6F20 
 1033      370D 0A00 
 1036               	__c.1599:
 1037 0061 556E 6B6E 		.string	"Unknown pin \""
 1037      6F77 6E20 
 1037      7069 6E20 
 1037      2200 
 1040               	__c.1597:
 1041 006f 222C 206D 		.string	"\", must be A - F\r\n"
 1041      7573 7420 
 1041      6265 2041 
 1041      202D 2046 
 1041      0D0A 00
 1044               	__c.1595:
 1045 0082 556E 6B6E 		.string	"Unknown port \""
 1045      6F77 6E20 
 1045      706F 7274 
 1045      2022 00
 1048               	__c.1593:
 1049 0091 756E 7265 		.string	"unrecognized format, 3 chars min req'd\r\n"
 1049      636F 676E 
 1049      697A 6564 
 1049      2066 6F72 
 1049      6D61 742C 
 1052               	__c.1526:
 1053 00ba 494E 5641 		.string	"INVALID_COMMAND_CODE"
 1053      4C49 445F 
 1053      434F 4D4D 
 1053      414E 445F 
 1053      434F 4445 
 1056               	__c.1490:
 1057 00cf 0102 0304 		.string	"\001\002\003\004\005\006\007\b\n"
 1057      0506 0708 
 1057      0A00 
 1060               	__c.1473:
 1061 00d9 4172 6D20 		.string	"Arm Controller 1.0\n"
 1061      436F 6E74 
 1061      726F 6C6C 
 1061      6572 2031 
 1061      2E30 0A00 
 1062               		.comm adcl_vals,8,1
 1063               		.comm adch_vals,8,1
 1064               		.comm cur_adc_mux,1,1
 1209               	.Letext0:
DEFINED SYMBOLS
                            *ABS*:00000000 arm.c
     /tmp/ccXhmNcz.s:2      *ABS*:0000003f __SREG__
     /tmp/ccXhmNcz.s:3      *ABS*:0000003e __SP_H__
     /tmp/ccXhmNcz.s:4      *ABS*:0000003d __SP_L__
     /tmp/ccXhmNcz.s:5      *ABS*:00000034 __CCP__
     /tmp/ccXhmNcz.s:6      *ABS*:00000000 __tmp_reg__
     /tmp/ccXhmNcz.s:7      *ABS*:00000001 __zero_reg__
     /tmp/ccXhmNcz.s:21     .text.set_adc_port:00000000 set_adc_port
     /tmp/ccXhmNcz.s:44     .text.setup_adc:00000000 setup_adc
                            *COM*:00000008 adcl_vals
                            *COM*:00000008 adch_vals
                            *COM*:00000001 cur_adc_mux
     /tmp/ccXhmNcz.s:88     .text.set_default_duty_cycles:00000000 set_default_duty_cycles
     /tmp/ccXhmNcz.s:125    .text.setup_pwms:00000000 setup_pwms
     /tmp/ccXhmNcz.s:188    .text.handle_query_pwm_command:00000000 handle_query_pwm_command
     /tmp/ccXhmNcz.s:202    .text.send_str:00000000 send_str
     /tmp/ccXhmNcz.s:247    .text.parse_and_execute_command:00000000 parse_and_execute_command
     /tmp/ccXhmNcz.s:1048   .progmem.data:00000091 __c.1593
     /tmp/ccXhmNcz.s:1044   .progmem.data:00000082 __c.1595
     /tmp/ccXhmNcz.s:1040   .progmem.data:0000006f __c.1597
     /tmp/ccXhmNcz.s:1036   .progmem.data:00000061 __c.1599
     /tmp/ccXhmNcz.s:1032   .progmem.data:0000004d __c.1601
     /tmp/ccXhmNcz.s:1028   .progmem.data:0000004a __c.1603
     /tmp/ccXhmNcz.s:1024   .progmem.data:0000003a __c.1605
     /tmp/ccXhmNcz.s:1020   .progmem.data:00000026 __c.1607
     /tmp/ccXhmNcz.s:1016   .progmem.data:00000014 __c.1609
     /tmp/ccXhmNcz.s:1012   .progmem.data:00000000 __c.1611
     /tmp/ccXhmNcz.s:452    .text.handle_query_adc_command:00000000 handle_query_adc_command
     /tmp/ccXhmNcz.s:506    .text.handle_adc_ports_command:00000000 handle_adc_ports_command
     /tmp/ccXhmNcz.s:523    .text.handle_pwm_ports_command:00000000 handle_pwm_ports_command
     /tmp/ccXhmNcz.s:1056   .progmem.data:000000cf __c.1490
     /tmp/ccXhmNcz.s:546    .text.handle_ping_command:00000000 handle_ping_command
     /tmp/ccXhmNcz.s:603    .text.handle_version_command:00000000 handle_version_command
     /tmp/ccXhmNcz.s:1060   .progmem.data:000000d9 __c.1473
     /tmp/ccXhmNcz.s:623    .text.handle_set_pwm_command:00000000 handle_set_pwm_command
     /tmp/ccXhmNcz.s:717    .text.handle_command:00000000 handle_command
     /tmp/ccXhmNcz.s:1052   .progmem.data:000000ba __c.1526
     /tmp/ccXhmNcz.s:810    .text.recv_str:00000000 recv_str
     /tmp/ccXhmNcz.s:886    .text.main:00000000 main

UNDEFINED SYMBOLS
__do_copy_data
__do_clear_bss
usb_serial_putchar
usb_serial_getchar
usb_configured
usb_serial_get_control
usb_init
usb_serial_flush_input
