   1               		.file	"lightctl.c"
   2               	__SREG__ = 0x3f
   3               	__SP_H__ = 0x3e
   4               	__SP_L__ = 0x3d
   5               	__CCP__  = 0x34
   6               	__tmp_reg__ = 0
   7               	__zero_reg__ = 1
   8               		.global __do_copy_data
   9               		.global __do_clear_bss
  17               	.Ltext0:
  18               		.section	.text.set_default_duty_cycles,"ax",@progbits
  19               	.global	set_default_duty_cycles
  21               	set_default_duty_cycles:
  22               	.LFB8:
  23               	.LSM0:
  24               	/* prologue: function */
  25               	/* frame size = 0 */
  26               	.L2:
  27               	.LSM1:
  28 0000 17BC      		out 71-32,__zero_reg__
  29               	.LSM2:
  30 0002 18BC      		out 72-32,__zero_reg__
  31               	.LSM3:
  32 0004 1092 B300 		sts 179,__zero_reg__
  33               	.LSM4:
  34 0008 1092 B400 		sts 180,__zero_reg__
  35               	.LSM5:
  36 000c 1092 8900 		sts 137,__zero_reg__
  37               	.LSM6:
  38 0010 1092 8800 		sts 136,__zero_reg__
  39               	.LSM7:
  40 0014 1092 8B00 		sts 139,__zero_reg__
  41               	.LSM8:
  42 0018 1092 8A00 		sts 138,__zero_reg__
  43               	.LSM9:
  44 001c 1092 8D00 		sts 141,__zero_reg__
  45               	.LSM10:
  46 0020 1092 8C00 		sts 140,__zero_reg__
  47               	.LSM11:
  48 0024 1092 9900 		sts 153,__zero_reg__
  49               	.LSM12:
  50 0028 1092 9800 		sts 152,__zero_reg__
  51               	.LSM13:
  52 002c 1092 9B00 		sts 155,__zero_reg__
  53               	.LSM14:
  54 0030 1092 9A00 		sts 154,__zero_reg__
  55               	.LSM15:
  56 0034 1092 9D00 		sts 157,__zero_reg__
  57               	.LSM16:
  58 0038 1092 9C00 		sts 156,__zero_reg__
  59 003c 00C0      		rjmp .L2
  60               	.LFE8:
  62               		.section	.text.setup_pwms,"ax",@progbits
  63               	.global	setup_pwms
  65               	setup_pwms:
  66               	.LFB9:
  67               	.LSM17:
  68               	/* prologue: function */
  69               	/* frame size = 0 */
  70               	.LSM18:
  71 0000 84B1      		in r24,36-32
  72 0002 806F      		ori r24,lo8(-16)
  73 0004 84B9      		out 36-32,r24
  74               	.LSM19:
  75 0006 8AB1      		in r24,42-32
  76 0008 8360      		ori r24,lo8(3)
  77 000a 8AB9      		out 42-32,r24
  78               	.LSM20:
  79 000c 93EA      		ldi r25,lo8(-93)
  80 000e 94BD      		out 68-32,r25
  81               	.LSM21:
  82 0010 81E0      		ldi r24,lo8(1)
  83 0012 85BD      		out 69-32,r24
  84               	.LSM22:
  85 0014 9093 B000 		sts 176,r25
  86               	.LSM23:
  87 0018 8093 B100 		sts 177,r24
  88               	.LSM24:
  89 001c 91EA      		ldi r25,lo8(-95)
  90 001e 9093 8000 		sts 128,r25
  91               	.LSM25:
  92 0022 89E0      		ldi r24,lo8(9)
  93 0024 8093 8100 		sts 129,r24
  94               	.LSM26:
  95 0028 1092 8200 		sts 130,__zero_reg__
  96               	.LSM27:
  97 002c 9093 9000 		sts 144,r25
  98               	.LSM28:
  99 0030 8093 9100 		sts 145,r24
 100               	.LSM29:
 101 0034 1092 9200 		sts 146,__zero_reg__
 102               	/* epilogue start */
 103               	.LSM30:
 104 0038 0895      		ret
 105               	.LFE9:
 107               		.section	.text.send_str,"ax",@progbits
 108               	.global	send_str
 110               	send_str:
 111               	.LFB17:
 112               	.LSM31:
 113               	.LVL0:
 114 0000 CF93      		push r28
 115 0002 DF93      		push r29
 116               	/* prologue: function */
 117               	/* frame size = 0 */
 118 0004 EC01      		movw r28,r24
 119               	.LVL1:
 120               	.L8:
 121               	.LSM32:
 122 0006 FE01      		movw r30,r28
 123               	.LVL2:
 124               	.LBB54:
 125               	.LSM33:
 126 0008 2196      		adiw r28,1
 127               	/* #APP */
 128               	 ;  427 "lightctl.c" 1
 129 000a 8491      		lpm r24, Z
 130               		
 131               	 ;  0 "" 2
 132               	.LVL3:
 133               	/* #NOAPP */
 134               	.LBE54:
 135               	.LSM34:
 136 000c 8823      		tst r24
 137 000e 01F0      		breq .L9
 138               	.LSM35:
 139 0010 0E94 0000 		call usb_serial_putchar
 140               	.LVL4:
 141 0014 00C0      		rjmp .L8
 142               	.LVL5:
 143               	.L9:
 144               	/* epilogue start */
 145               	.LSM36:
 146 0016 DF91      		pop r29
 147 0018 CF91      		pop r28
 148               	.LVL6:
 149 001a 0895      		ret
 150               	.LFE17:
 152               		.section	.text.parse_and_execute_command,"ax",@progbits
 153               	.global	parse_and_execute_command
 155               	parse_and_execute_command:
 156               	.LFB19:
 157               	.LSM37:
 158               	.LVL7:
 159 0000 CF93      		push r28
 160 0002 DF93      		push r29
 161               	/* prologue: function */
 162               	/* frame size = 0 */
 163 0004 EC01      		movw r28,r24
 164               	.LSM38:
 165 0006 6330      		cpi r22,lo8(3)
 166 0008 00F4      		brsh .L11
 167               	.LVL8:
 168               	.LSM39:
 169 000a 80E0      		ldi r24,lo8(__c.1823)
 170 000c 90E0      		ldi r25,hi8(__c.1823)
 171 000e 00C0      		rjmp .L24
 172               	.LVL9:
 173               	.L11:
 174               	.LSM40:
 175 0010 8881      		ld r24,Y
 176 0012 982F      		mov r25,r24
 177               	.LVL10:
 178 0014 9154      		subi r25,lo8(-(-65))
 179 0016 9630      		cpi r25,lo8(6)
 180 0018 00F0      		brlo .L13
 181               	.LSM41:
 182 001a 9052      		subi r25,lo8(-(-32))
 183 001c 9630      		cpi r25,lo8(6)
 184 001e 00F0      		brlo .L13
 185               	.LSM42:
 186 0020 80E0      		ldi r24,lo8(__c.1825)
 187 0022 90E0      		ldi r25,hi8(__c.1825)
 188 0024 0E94 0000 		call send_str
 189               	.LVL11:
 190               	.LSM43:
 191 0028 8881      		ld r24,Y
 192 002a 0E94 0000 		call usb_serial_putchar
 193               	.LSM44:
 194 002e 80E0      		ldi r24,lo8(__c.1827)
 195 0030 90E0      		ldi r25,hi8(__c.1827)
 196 0032 00C0      		rjmp .L24
 197               	.LVL12:
 198               	.L13:
 199               	.LSM45:
 200 0034 2981      		ldd r18,Y+1
 201               	.LVL13:
 202 0036 2053      		subi r18,lo8(-(-48))
 203 0038 2830      		cpi r18,lo8(8)
 204 003a 00F4      		brsh .L14
 205               	.LSM46:
 206 003c 8A81      		ldd r24,Y+2
 207 003e 8F33      		cpi r24,lo8(63)
 208 0040 01F4      		brne .L23
 209 0042 00C0      		rjmp .L26
 210               	.L14:
 211               	.LSM47:
 212 0044 80E0      		ldi r24,lo8(__c.1829)
 213 0046 90E0      		ldi r25,hi8(__c.1829)
 214 0048 0E94 0000 		call send_str
 215               	.LVL14:
 216               	.LSM48:
 217 004c 8881      		ld r24,Y
 218 004e 0E94 0000 		call usb_serial_putchar
 219               	.LSM49:
 220 0052 80E0      		ldi r24,lo8(__c.1831)
 221 0054 90E0      		ldi r25,hi8(__c.1831)
 222 0056 00C0      		rjmp .L24
 223               	.LVL15:
 224               	.L26:
 225               	.LSM50:
 226 0058 E3E0      		ldi r30,lo8(3)
 227 005a 9E9F      		mul r25,r30
 228 005c F001      		movw r30,r0
 229 005e 1124      		clr r1
 230 0060 81E0      		ldi r24,lo8(1)
 231 0062 90E0      		ldi r25,hi8(1)
 232 0064 00C0      		rjmp 2f
 233 0066 880F      	1:	lsl r24
 234 0068 991F      		rol r25
 235 006a 2A95      	2:	dec r18
 236 006c 02F4      		brpl 1b
 237 006e 382F      		mov r19,r24
 238 0070 3095      		com r19
 239 0072 21A1      		ldd r18,Z+33
 240               	.LVL16:
 241 0074 2323      		and r18,r19
 242 0076 21A3      		std Z+33,r18
 243               	.LSM51:
 244 0078 20A1      		ldd r18,Z+32
 245 007a 8223      		and r24,r18
 246 007c 01F4      		brne .L17
 247 007e 80E3      		ldi r24,lo8(48)
 248 0080 00C0      		rjmp .L18
 249               	.L17:
 250 0082 81E3      		ldi r24,lo8(49)
 251               	.L18:
 252 0084 0E94 0000 		call usb_serial_putchar
 253               	.LVL17:
 254               	.LSM52:
 255 0088 80E0      		ldi r24,lo8(__c.1833)
 256 008a 90E0      		ldi r25,hi8(__c.1833)
 257 008c 00C0      		rjmp .L24
 258               	.LVL18:
 259               	.L23:
 260               	.LSM53:
 261 008e 6330      		cpi r22,lo8(3)
 262 0090 01F0      		breq .L19
 263 0092 8D33      		cpi r24,lo8(61)
 264 0094 01F4      		brne .L19
 265               	.LSM54:
 266 0096 8B81      		ldd r24,Y+3
 267 0098 8033      		cpi r24,lo8(48)
 268 009a 01F4      		brne .L20
 269               	.LSM55:
 270 009c E3E0      		ldi r30,lo8(3)
 271 009e 9E9F      		mul r25,r30
 272 00a0 F001      		movw r30,r0
 273 00a2 1124      		clr r1
 274 00a4 81E0      		ldi r24,lo8(1)
 275 00a6 90E0      		ldi r25,hi8(1)
 276 00a8 00C0      		rjmp 2f
 277 00aa 880F      	1:	lsl r24
 278 00ac 991F      		rol r25
 279 00ae 2A95      	2:	dec r18
 280 00b0 02F4      		brpl 1b
 281 00b2 21A1      		ldd r18,Z+33
 282               	.LVL19:
 283 00b4 282B      		or r18,r24
 284 00b6 21A3      		std Z+33,r18
 285               	.LSM56:
 286 00b8 8095      		com r24
 287 00ba 22A1      		ldd r18,Z+34
 288 00bc 2823      		and r18,r24
 289 00be 00C0      		rjmp .L25
 290               	.LVL20:
 291               	.L20:
 292               	.LSM57:
 293 00c0 8133      		cpi r24,lo8(49)
 294 00c2 01F4      		brne .L21
 295               	.LSM58:
 296 00c4 E3E0      		ldi r30,lo8(3)
 297 00c6 9E9F      		mul r25,r30
 298 00c8 F001      		movw r30,r0
 299 00ca 1124      		clr r1
 300 00cc 81E0      		ldi r24,lo8(1)
 301 00ce 90E0      		ldi r25,hi8(1)
 302 00d0 00C0      		rjmp 2f
 303 00d2 880F      	1:	lsl r24
 304 00d4 991F      		rol r25
 305 00d6 2A95      	2:	dec r18
 306 00d8 02F4      		brpl 1b
 307 00da 21A1      		ldd r18,Z+33
 308               	.LVL21:
 309 00dc 282B      		or r18,r24
 310 00de 21A3      		std Z+33,r18
 311               	.LSM59:
 312 00e0 22A1      		ldd r18,Z+34
 313 00e2 282B      		or r18,r24
 314               	.L25:
 315 00e4 22A3      		std Z+34,r18
 316 00e6 00C0      		rjmp .L22
 317               	.LVL22:
 318               	.L21:
 319               	.LSM60:
 320 00e8 80E0      		ldi r24,lo8(__c.1835)
 321 00ea 90E0      		ldi r25,hi8(__c.1835)
 322 00ec 0E94 0000 		call send_str
 323               	.LVL23:
 324               	.LSM61:
 325 00f0 8B81      		ldd r24,Y+3
 326 00f2 0E94 0000 		call usb_serial_putchar
 327               	.LSM62:
 328 00f6 80E0      		ldi r24,lo8(__c.1837)
 329 00f8 90E0      		ldi r25,hi8(__c.1837)
 330 00fa 00C0      		rjmp .L24
 331               	.LVL24:
 332               	.L19:
 333               	.LSM63:
 334 00fc 80E0      		ldi r24,lo8(__c.1839)
 335 00fe 90E0      		ldi r25,hi8(__c.1839)
 336 0100 0E94 0000 		call send_str
 337               	.LVL25:
 338               	.LSM64:
 339 0104 8881      		ld r24,Y
 340 0106 0E94 0000 		call usb_serial_putchar
 341               	.LSM65:
 342 010a 80E0      		ldi r24,lo8(__c.1841)
 343 010c 90E0      		ldi r25,hi8(__c.1841)
 344               	.LVL26:
 345               	.L24:
 346 010e 0E94 0000 		call send_str
 347               	.LVL27:
 348               	.L22:
 349               	/* epilogue start */
 350               	.LSM66:
 351 0112 DF91      		pop r29
 352 0114 CF91      		pop r28
 353               	.LVL28:
 354 0116 0895      		ret
 355               	.LFE19:
 357               		.section	.text.handle_pwm_ports_command,"ax",@progbits
 358               	.global	handle_pwm_ports_command
 360               	handle_pwm_ports_command:
 361               	.LFB14:
 362               	.LSM67:
 363               	/* prologue: function */
 364               	/* frame size = 0 */
 365               	.LSM68:
 366 0000 83E0      		ldi r24,lo8(3)
 367 0002 0E94 0000 		call usb_serial_putchar
 368               	.LSM69:
 369 0006 80E0      		ldi r24,lo8(0)
 370 0008 0E94 0000 		call usb_serial_putchar
 371               	.LSM70:
 372 000c 80E0      		ldi r24,lo8(__c.1745)
 373 000e 90E0      		ldi r25,hi8(__c.1745)
 374 0010 0E94 0000 		call send_str
 375               	/* epilogue start */
 376               	.LSM71:
 377 0014 0895      		ret
 378               	.LFE14:
 380               		.section	.text.handle_ping_command,"ax",@progbits
 381               	.global	handle_ping_command
 383               	handle_ping_command:
 384               	.LFB13:
 385               	.LSM72:
 386               	.LVL29:
 387 0000 FF92      		push r15
 388 0002 0F93      		push r16
 389 0004 1F93      		push r17
 390 0006 CF93      		push r28
 391 0008 DF93      		push r29
 392               	/* prologue: function */
 393               	/* frame size = 0 */
 394 000a 182F      		mov r17,r24
 395 000c 092F      		mov r16,r25
 396               	.LVL30:
 397 000e F62E      		mov r15,r22
 398               	.LSM73:
 399 0010 82E0      		ldi r24,lo8(2)
 400               	.LVL31:
 401 0012 0E94 0000 		call usb_serial_putchar
 402               	.LVL32:
 403 0016 212F      		mov r18,r17
 404 0018 302F      		mov r19,r16
 405 001a C901      		movw r24,r18
 406 001c EC01      		movw r28,r24
 407 001e 11E0      		ldi r17,lo8(1)
 408               	.LVL33:
 409 0020 00C0      		rjmp .L30
 410               	.L31:
 411               	.LSM74:
 412 0022 8881      		ld r24,Y
 413 0024 0E94 0000 		call usb_serial_putchar
 414               	.LSM75:
 415 0028 1F5F      		subi r17,lo8(-(1))
 416               	.L30:
 417 002a 2196      		adiw r28,1
 418               	.LSM76:
 419 002c 1F15      		cp r17,r15
 420 002e 00F0      		brlo .L31
 421               	.LSM77:
 422 0030 8AE0      		ldi r24,lo8(10)
 423 0032 0E94 0000 		call usb_serial_putchar
 424               	/* epilogue start */
 425               	.LSM78:
 426 0036 DF91      		pop r29
 427 0038 CF91      		pop r28
 428 003a 1F91      		pop r17
 429               	.LVL34:
 430 003c 0F91      		pop r16
 431               	.LVL35:
 432 003e FF90      		pop r15
 433               	.LVL36:
 434 0040 0895      		ret
 435               	.LFE13:
 437               		.section	.text.handle_version_command,"ax",@progbits
 438               	.global	handle_version_command
 440               	handle_version_command:
 441               	.LFB12:
 442               	.LSM79:
 443               	/* prologue: function */
 444               	/* frame size = 0 */
 445               	.LSM80:
 446 0000 80E0      		ldi r24,lo8(0)
 447 0002 0E94 0000 		call usb_serial_putchar
 448               	.LSM81:
 449 0006 80E0      		ldi r24,lo8(__c.1728)
 450 0008 90E0      		ldi r25,hi8(__c.1728)
 451 000a 0E94 0000 		call send_str
 452               	/* epilogue start */
 453               	.LSM82:
 454 000e 0895      		ret
 455               	.LFE12:
 457               		.section	.text.handle_set_pwm_command,"ax",@progbits
 458               	.global	handle_set_pwm_command
 460               	handle_set_pwm_command:
 461               	.LFB10:
 462               	.LSM83:
 463               	.LVL37:
 464 0000 0F93      		push r16
 465 0002 1F93      		push r17
 466               	/* prologue: function */
 467               	/* frame size = 0 */
 468 0004 182F      		mov r17,r24
 469 0006 062F      		mov r16,r22
 470               	.LSM84:
 471 0008 84E0      		ldi r24,lo8(4)
 472               	.LVL38:
 473 000a 0E94 0000 		call usb_serial_putchar
 474               	.LVL39:
 475               	.LSM85:
 476 000e 812F      		mov r24,r17
 477 0010 0E94 0000 		call usb_serial_putchar
 478               	.LSM86:
 479 0014 1430      		cpi r17,lo8(4)
 480 0016 01F0      		breq .L41
 481 0018 1530      		cpi r17,lo8(5)
 482 001a 00F4      		brsh .L46
 483 001c 1130      		cpi r17,lo8(1)
 484 001e 01F0      		breq .L38
 485 0020 1130      		cpi r17,lo8(1)
 486 0022 00F0      		brlo .L37
 487 0024 1230      		cpi r17,lo8(2)
 488 0026 01F0      		breq .L39
 489 0028 1330      		cpi r17,lo8(3)
 490 002a 01F4      		brne .L36
 491 002c 00C0      		rjmp .L51
 492               	.L46:
 493 002e 1630      		cpi r17,lo8(6)
 494 0030 01F0      		breq .L43
 495 0032 1630      		cpi r17,lo8(6)
 496 0034 00F0      		brlo .L42
 497 0036 1730      		cpi r17,lo8(7)
 498 0038 01F0      		breq .L44
 499 003a 1830      		cpi r17,lo8(8)
 500 003c 01F4      		brne .L36
 501 003e 00C0      		rjmp .L52
 502               	.L37:
 503               	.LSM87:
 504 0040 07BD      		out 71-32,r16
 505 0042 00C0      		rjmp .L47
 506               	.L38:
 507               	.LSM88:
 508 0044 08BD      		out 72-32,r16
 509 0046 00C0      		rjmp .L47
 510               	.L39:
 511               	.LSM89:
 512 0048 802F      		mov r24,r16
 513 004a 90E0      		ldi r25,lo8(0)
 514 004c 9093 8900 		sts (136)+1,r25
 515 0050 8093 8800 		sts 136,r24
 516 0054 00C0      		rjmp .L47
 517               	.L51:
 518               	.LSM90:
 519 0056 802F      		mov r24,r16
 520 0058 90E0      		ldi r25,lo8(0)
 521 005a 9093 8B00 		sts (138)+1,r25
 522 005e 8093 8A00 		sts 138,r24
 523 0062 00C0      		rjmp .L47
 524               	.L41:
 525               	.LSM91:
 526 0064 0093 B300 		sts 179,r16
 527 0068 00C0      		rjmp .L47
 528               	.L42:
 529               	.LSM92:
 530 006a 0093 B400 		sts 180,r16
 531 006e 00C0      		rjmp .L47
 532               	.L43:
 533               	.LSM93:
 534 0070 802F      		mov r24,r16
 535 0072 90E0      		ldi r25,lo8(0)
 536 0074 9093 9900 		sts (152)+1,r25
 537 0078 8093 9800 		sts 152,r24
 538 007c 00C0      		rjmp .L47
 539               	.L44:
 540               	.LSM94:
 541 007e 802F      		mov r24,r16
 542 0080 90E0      		ldi r25,lo8(0)
 543 0082 9093 9B00 		sts (154)+1,r25
 544 0086 8093 9A00 		sts 154,r24
 545 008a 00C0      		rjmp .L47
 546               	.L52:
 547               	.LSM95:
 548 008c 802F      		mov r24,r16
 549 008e 90E0      		ldi r25,lo8(0)
 550 0090 9093 9D00 		sts (156)+1,r25
 551 0094 8093 9C00 		sts 156,r24
 552 0098 00C0      		rjmp .L47
 553               	.L36:
 554               	.LSM96:
 555 009a 81E0      		ldi r24,lo8(1)
 556 009c 00C0      		rjmp .L50
 557               	.L47:
 558               	.LSM97:
 559 009e 80E0      		ldi r24,lo8(0)
 560               	.L50:
 561 00a0 0E94 0000 		call usb_serial_putchar
 562               	.LSM98:
 563 00a4 8AE0      		ldi r24,lo8(10)
 564 00a6 0E94 0000 		call usb_serial_putchar
 565               	/* epilogue start */
 566               	.LSM99:
 567 00aa 1F91      		pop r17
 568               	.LVL40:
 569 00ac 0F91      		pop r16
 570               	.LVL41:
 571 00ae 0895      		ret
 572               	.LFE10:
 574               		.section	.text.recv_str,"ax",@progbits
 575               	.global	recv_str
 577               	recv_str:
 578               	.LFB18:
 579               	.LSM100:
 580               	.LVL42:
 581 0000 0F93      		push r16
 582 0002 1F93      		push r17
 583 0004 CF93      		push r28
 584 0006 DF93      		push r29
 585               	/* prologue: function */
 586               	/* frame size = 0 */
 587 0008 EC01      		movw r28,r24
 588 000a 062F      		mov r16,r22
 589               	.LSM101:
 590 000c 10E0      		ldi r17,lo8(0)
 591               	.LVL43:
 592 000e 00C0      		rjmp .L60
 593               	.LVL44:
 594               	.L58:
 595               	.LSM102:
 596 0010 0E94 0000 		call usb_serial_getchar
 597               	.LVL45:
 598               	.LSM103:
 599 0014 2FEF      		ldi r18,hi8(-1)
 600 0016 8F3F      		cpi r24,lo8(-1)
 601 0018 9207      		cpc r25,r18
 602               	.LVL46:
 603 001a 01F0      		breq .L55
 604               	.LSM104:
 605 001c 8D30      		cpi r24,13
 606 001e 9105      		cpc r25,__zero_reg__
 607 0020 01F0      		breq .L56
 608 0022 8A30      		cpi r24,10
 609 0024 9105      		cpc r25,__zero_reg__
 610 0026 01F0      		breq .L56
 611               	.LSM105:
 612 0028 8993      		st Y+,r24
 613               	.LSM106:
 614 002a 1F5F      		subi r17,lo8(-(1))
 615 002c 00C0      		rjmp .L60
 616               	.L55:
 617               	.LSM107:
 618 002e 0E94 0000 		call usb_configured
 619               	.LVL47:
 620 0032 8823      		tst r24
 621 0034 01F0      		breq .L57
 622 0036 0E94 0000 		call usb_serial_get_control
 623 003a 80FF      		sbrs r24,0
 624 003c 00C0      		rjmp .L57
 625               	.LVL48:
 626               	.L60:
 627               	.LSM108:
 628 003e 1017      		cp r17,r16
 629 0040 00F0      		brlo .L58
 630 0042 00C0      		rjmp .L56
 631               	.LVL49:
 632               	.L57:
 633 0044 1FEF      		ldi r17,lo8(-1)
 634               	.LVL50:
 635               	.L56:
 636               	.LSM109:
 637 0046 812F      		mov r24,r17
 638               	.LVL51:
 639               	/* epilogue start */
 640 0048 DF91      		pop r29
 641 004a CF91      		pop r28
 642               	.LVL52:
 643 004c 1F91      		pop r17
 644               	.LVL53:
 645 004e 0F91      		pop r16
 646               	.LVL54:
 647 0050 0895      		ret
 648               	.LFE18:
 650               		.section	.text.handle_sensor_query,"ax",@progbits
 651               	.global	handle_sensor_query
 653               	handle_sensor_query:
 654               	.LFB11:
 655               	.LSM110:
 656               	.LVL55:
 657 0000 DF92      		push r13
 658 0002 EF92      		push r14
 659 0004 FF92      		push r15
 660 0006 0F93      		push r16
 661 0008 1F93      		push r17
 662 000a DF93      		push r29
 663 000c CF93      		push r28
 664 000e 00D0      		rcall .
 665 0010 00D0      		rcall .
 666 0012 CDB7      		in r28,__SP_L__
 667 0014 DEB7      		in r29,__SP_H__
 668               	/* prologue: function */
 669               	/* frame size = 4 */
 670 0016 182F      		mov r17,r24
 671               	.LSM111:
 672 0018 87E0      		ldi r24,lo8(7)
 673               	.LVL56:
 674 001a 0E94 0000 		call usb_serial_putchar
 675               	.LSM112:
 676 001e 812F      		mov r24,r17
 677 0020 0E94 0000 		call usb_serial_putchar
 678               	.LSM113:
 679 0024 1330      		cpi r17,lo8(3)
 680 0026 01F4      		brne .+2
 681 0028 00C0      		rjmp .L66
 682 002a 1430      		cpi r17,lo8(4)
 683 002c 00F4      		brsh .L71
 684 002e 1130      		cpi r17,lo8(1)
 685 0030 01F4      		brne .+2
 686 0032 00C0      		rjmp .L64
 687 0034 1230      		cpi r17,lo8(2)
 688 0036 00F0      		brlo .+2
 689 0038 00C0      		rjmp .L65
 690 003a 00C0      		rjmp .L156
 691               	.L71:
 692 003c 1530      		cpi r17,lo8(5)
 693 003e 01F4      		brne .+2
 694 0040 00C0      		rjmp .L68
 695 0042 1530      		cpi r17,lo8(5)
 696 0044 00F4      		brsh .+2
 697 0046 00C0      		rjmp .L67
 698 0048 1630      		cpi r17,lo8(6)
 699 004a 01F4      		brne .+2
 700 004c 00C0      		rjmp .L69
 701 004e 1730      		cpi r17,lo8(7)
 702 0050 01F0      		breq .+2
 703 0052 00C0      		rjmp .L154
 704 0054 00C0      		rjmp .L157
 705               	.L156:
 706               	.LSM114:
 707 0056 80E0      		ldi r24,lo8(0)
 708 0058 60E4      		ldi r22,lo8(64)
 709 005a 0E94 0000 		call adc_start
 710 005e 01E0      		ldi r16,lo8(1)
 711 0060 10E0      		ldi r17,hi8(1)
 712               	.LVL57:
 713               	.LSM115:
 714 0062 F0E2      		ldi r31,lo8(32)
 715 0064 DF2E      		mov r13,r31
 716               	.LSM116:
 717 0066 7E01      		movw r14,r28
 718 0068 0894      		sec
 719 006a E11C      		adc r14,__zero_reg__
 720 006c F11C      		adc r15,__zero_reg__
 721               	.L78:
 722               	.LSM117:
 723 006e 0E94 0000 		call adc_read
 724 0072 9C01      		movw r18,r24
 725               	.LSM118:
 726 0074 892F      		mov r24,r25
 727 0076 9927      		clr r25
 728               	.LVL58:
 729 0078 482F      		mov r20,r24
 730 007a 4F70      		andi r20,lo8(15)
 731 007c 8F70      		andi r24,lo8(15)
 732 007e 9070      		andi r25,hi8(15)
 733 0080 0A97      		sbiw r24,10
 734 0082 00F4      		brsh .L72
 735 0084 542F      		mov r21,r20
 736 0086 505D      		subi r21,lo8(-(48))
 737 0088 00C0      		rjmp .L73
 738               	.L72:
 739 008a 542F      		mov r21,r20
 740 008c 595C      		subi r21,lo8(-(55))
 741               	.L73:
 742               	.LSM119:
 743 008e C901      		movw r24,r18
 744               	.LVL59:
 745 0090 74E0      		ldi r23,4
 746 0092 9695      	1:	lsr r25
 747 0094 8795      		ror r24
 748 0096 7A95      		dec r23
 749 0098 01F4      		brne 1b
 750 009a 482F      		mov r20,r24
 751 009c 4F70      		andi r20,lo8(15)
 752 009e 8F70      		andi r24,lo8(15)
 753 00a0 9070      		andi r25,hi8(15)
 754 00a2 0A97      		sbiw r24,10
 755 00a4 00F4      		brsh .L74
 756 00a6 842F      		mov r24,r20
 757 00a8 805D      		subi r24,lo8(-(48))
 758 00aa 00C0      		rjmp .L75
 759               	.L74:
 760 00ac 842F      		mov r24,r20
 761 00ae 895C      		subi r24,lo8(-(55))
 762               	.L75:
 763 00b0 922F      		mov r25,r18
 764               	.LVL60:
 765 00b2 9F70      		andi r25,lo8(15)
 766               	.LSM120:
 767 00b4 2F70      		andi r18,lo8(15)
 768 00b6 3070      		andi r19,hi8(15)
 769               	.LVL61:
 770 00b8 2A30      		cpi r18,10
 771 00ba 3105      		cpc r19,__zero_reg__
 772 00bc 00F4      		brsh .L76
 773 00be 905D      		subi r25,lo8(-(48))
 774 00c0 00C0      		rjmp .L77
 775               	.L76:
 776 00c2 995C      		subi r25,lo8(-(55))
 777               	.L77:
 778 00c4 9B83      		std Y+3,r25
 779               	.LSM121:
 780 00c6 DC82      		std Y+4,r13
 781               	.LSM122:
 782 00c8 8A83      		std Y+2,r24
 783               	.LSM123:
 784 00ca 5983      		std Y+1,r21
 785               	.LSM124:
 786 00cc C701      		movw r24,r14
 787 00ce 64E0      		ldi r22,lo8(4)
 788 00d0 70E0      		ldi r23,hi8(4)
 789 00d2 0E94 0000 		call usb_serial_write
 790               	.LVL62:
 791               	.LSM125:
 792 00d6 0F5F      		subi r16,lo8(-(1))
 793 00d8 1F4F      		sbci r17,hi8(-(1))
 794 00da 0A30      		cpi r16,10
 795 00dc 1105      		cpc r17,__zero_reg__
 796 00de 01F4      		brne .L78
 797 00e0 00C0      		rjmp .L79
 798               	.LVL63:
 799               	.L64:
 800               	.LSM126:
 801 00e2 81E0      		ldi r24,lo8(1)
 802 00e4 60E4      		ldi r22,lo8(64)
 803 00e6 0E94 0000 		call adc_start
 804 00ea 88E8      		ldi r24,lo8(5000)
 805 00ec 93E1      		ldi r25,hi8(5000)
 806               	.LVL64:
 807               	.LBB55:
 808               	.LBB56:
 809               	.LBB57:
 810               	.LBB58:
 811               	.LSM127:
 812 00ee 20E9      		ldi r18,lo8(400)
 813 00f0 31E0      		ldi r19,hi8(400)
 814               	.L80:
 815 00f2 F901      		movw r30,r18
 816               	.LVL65:
 817               	/* #APP */
 818               	 ;  105 "/usr/lib/gcc/avr/4.3.4/../../../avr/include/util/delay_basic.h" 1
 819 00f4 3197      		1: sbiw r30,1
 820 00f6 01F4      		brne 1b
 821               	 ;  0 "" 2
 822               	/* #NOAPP */
 823               	.LBE58:
 824               	.LBE57:
 825               	.LSM128:
 826 00f8 0197      		sbiw r24,1
 827               	.LSM129:
 828 00fa 01F4      		brne .L80
 829 00fc 01E0      		ldi r16,lo8(1)
 830 00fe 10E0      		ldi r17,hi8(1)
 831               	.LVL66:
 832               	.LBE56:
 833               	.LBE55:
 834               	.LSM130:
 835 0100 60E2      		ldi r22,lo8(32)
 836 0102 D62E      		mov r13,r22
 837               	.LSM131:
 838 0104 7E01      		movw r14,r28
 839 0106 0894      		sec
 840 0108 E11C      		adc r14,__zero_reg__
 841 010a F11C      		adc r15,__zero_reg__
 842               	.L87:
 843               	.LSM132:
 844 010c 0E94 0000 		call adc_read
 845               	.LVL67:
 846 0110 9C01      		movw r18,r24
 847               	.LSM133:
 848 0112 892F      		mov r24,r25
 849 0114 9927      		clr r25
 850               	.LVL68:
 851 0116 482F      		mov r20,r24
 852 0118 4F70      		andi r20,lo8(15)
 853 011a 8F70      		andi r24,lo8(15)
 854 011c 9070      		andi r25,hi8(15)
 855 011e 0A97      		sbiw r24,10
 856 0120 00F4      		brsh .L81
 857 0122 542F      		mov r21,r20
 858 0124 505D      		subi r21,lo8(-(48))
 859 0126 00C0      		rjmp .L82
 860               	.L81:
 861 0128 542F      		mov r21,r20
 862 012a 595C      		subi r21,lo8(-(55))
 863               	.L82:
 864               	.LSM134:
 865 012c C901      		movw r24,r18
 866               	.LVL69:
 867 012e 44E0      		ldi r20,4
 868 0130 9695      	1:	lsr r25
 869 0132 8795      		ror r24
 870 0134 4A95      		dec r20
 871 0136 01F4      		brne 1b
 872 0138 482F      		mov r20,r24
 873 013a 4F70      		andi r20,lo8(15)
 874 013c 8F70      		andi r24,lo8(15)
 875 013e 9070      		andi r25,hi8(15)
 876 0140 0A97      		sbiw r24,10
 877 0142 00F4      		brsh .L83
 878 0144 842F      		mov r24,r20
 879 0146 805D      		subi r24,lo8(-(48))
 880 0148 00C0      		rjmp .L84
 881               	.L83:
 882 014a 842F      		mov r24,r20
 883 014c 895C      		subi r24,lo8(-(55))
 884               	.L84:
 885 014e 922F      		mov r25,r18
 886               	.LVL70:
 887 0150 9F70      		andi r25,lo8(15)
 888               	.LSM135:
 889 0152 2F70      		andi r18,lo8(15)
 890 0154 3070      		andi r19,hi8(15)
 891               	.LVL71:
 892 0156 2A30      		cpi r18,10
 893 0158 3105      		cpc r19,__zero_reg__
 894 015a 00F4      		brsh .L85
 895 015c 905D      		subi r25,lo8(-(48))
 896 015e 00C0      		rjmp .L86
 897               	.L85:
 898 0160 995C      		subi r25,lo8(-(55))
 899               	.L86:
 900 0162 9B83      		std Y+3,r25
 901               	.LSM136:
 902 0164 DC82      		std Y+4,r13
 903               	.LSM137:
 904 0166 8A83      		std Y+2,r24
 905               	.LSM138:
 906 0168 5983      		std Y+1,r21
 907               	.LSM139:
 908 016a C701      		movw r24,r14
 909 016c 64E0      		ldi r22,lo8(4)
 910 016e 70E0      		ldi r23,hi8(4)
 911 0170 0E94 0000 		call usb_serial_write
 912               	.LVL72:
 913               	.LSM140:
 914 0174 0F5F      		subi r16,lo8(-(1))
 915 0176 1F4F      		sbci r17,hi8(-(1))
 916 0178 0A30      		cpi r16,10
 917 017a 1105      		cpc r17,__zero_reg__
 918 017c 01F4      		brne .L87
 919 017e 00C0      		rjmp .L79
 920               	.LVL73:
 921               	.L65:
 922               	.LSM141:
 923 0180 82E0      		ldi r24,lo8(2)
 924 0182 60E4      		ldi r22,lo8(64)
 925 0184 0E94 0000 		call adc_start
 926 0188 88E8      		ldi r24,lo8(5000)
 927 018a 93E1      		ldi r25,hi8(5000)
 928               	.LVL74:
 929               	.LBB59:
 930               	.LBB60:
 931               	.LBB61:
 932               	.LBB62:
 933               	.LSM142:
 934 018c 20E9      		ldi r18,lo8(400)
 935 018e 31E0      		ldi r19,hi8(400)
 936               	.L88:
 937 0190 F901      		movw r30,r18
 938               	.LVL75:
 939               	/* #APP */
 940               	 ;  105 "/usr/lib/gcc/avr/4.3.4/../../../avr/include/util/delay_basic.h" 1
 941 0192 3197      		1: sbiw r30,1
 942 0194 01F4      		brne 1b
 943               	 ;  0 "" 2
 944               	/* #NOAPP */
 945               	.LBE62:
 946               	.LBE61:
 947               	.LSM143:
 948 0196 0197      		sbiw r24,1
 949               	.LSM144:
 950 0198 01F4      		brne .L88
 951 019a 01E0      		ldi r16,lo8(1)
 952 019c 10E0      		ldi r17,hi8(1)
 953               	.LVL76:
 954               	.LBE60:
 955               	.LBE59:
 956               	.LSM145:
 957 019e 80E2      		ldi r24,lo8(32)
 958 01a0 D82E      		mov r13,r24
 959               	.LVL77:
 960               	.LSM146:
 961 01a2 7E01      		movw r14,r28
 962 01a4 0894      		sec
 963 01a6 E11C      		adc r14,__zero_reg__
 964 01a8 F11C      		adc r15,__zero_reg__
 965               	.L95:
 966               	.LSM147:
 967 01aa 0E94 0000 		call adc_read
 968               	.LVL78:
 969 01ae 9C01      		movw r18,r24
 970               	.LSM148:
 971 01b0 892F      		mov r24,r25
 972 01b2 9927      		clr r25
 973               	.LVL79:
 974 01b4 482F      		mov r20,r24
 975 01b6 4F70      		andi r20,lo8(15)
 976 01b8 8F70      		andi r24,lo8(15)
 977 01ba 9070      		andi r25,hi8(15)
 978 01bc 0A97      		sbiw r24,10
 979 01be 00F4      		brsh .L89
 980 01c0 542F      		mov r21,r20
 981 01c2 505D      		subi r21,lo8(-(48))
 982 01c4 00C0      		rjmp .L90
 983               	.L89:
 984 01c6 542F      		mov r21,r20
 985 01c8 595C      		subi r21,lo8(-(55))
 986               	.L90:
 987               	.LSM149:
 988 01ca C901      		movw r24,r18
 989               	.LVL80:
 990 01cc A4E0      		ldi r26,4
 991 01ce 9695      	1:	lsr r25
 992 01d0 8795      		ror r24
 993 01d2 AA95      		dec r26
 994 01d4 01F4      		brne 1b
 995 01d6 482F      		mov r20,r24
 996 01d8 4F70      		andi r20,lo8(15)
 997 01da 8F70      		andi r24,lo8(15)
 998 01dc 9070      		andi r25,hi8(15)
 999 01de 0A97      		sbiw r24,10
 1000 01e0 00F4      		brsh .L91
 1001 01e2 842F      		mov r24,r20
 1002 01e4 805D      		subi r24,lo8(-(48))
 1003 01e6 00C0      		rjmp .L92
 1004               	.L91:
 1005 01e8 842F      		mov r24,r20
 1006 01ea 895C      		subi r24,lo8(-(55))
 1007               	.L92:
 1008 01ec 922F      		mov r25,r18
 1009               	.LVL81:
 1010 01ee 9F70      		andi r25,lo8(15)
 1011               	.LSM150:
 1012 01f0 2F70      		andi r18,lo8(15)
 1013 01f2 3070      		andi r19,hi8(15)
 1014               	.LVL82:
 1015 01f4 2A30      		cpi r18,10
 1016 01f6 3105      		cpc r19,__zero_reg__
 1017 01f8 00F4      		brsh .L93
 1018 01fa 905D      		subi r25,lo8(-(48))
 1019 01fc 00C0      		rjmp .L94
 1020               	.L93:
 1021 01fe 995C      		subi r25,lo8(-(55))
 1022               	.L94:
 1023 0200 9B83      		std Y+3,r25
 1024               	.LSM151:
 1025 0202 DC82      		std Y+4,r13
 1026               	.LSM152:
 1027 0204 8A83      		std Y+2,r24
 1028               	.LSM153:
 1029 0206 5983      		std Y+1,r21
 1030               	.LSM154:
 1031 0208 C701      		movw r24,r14
 1032 020a 64E0      		ldi r22,lo8(4)
 1033 020c 70E0      		ldi r23,hi8(4)
 1034 020e 0E94 0000 		call usb_serial_write
 1035               	.LVL83:
 1036               	.LSM155:
 1037 0212 0F5F      		subi r16,lo8(-(1))
 1038 0214 1F4F      		sbci r17,hi8(-(1))
 1039 0216 0A30      		cpi r16,10
 1040 0218 1105      		cpc r17,__zero_reg__
 1041 021a 01F4      		brne .L95
 1042 021c 00C0      		rjmp .L79
 1043               	.LVL84:
 1044               	.L66:
 1045               	.LSM156:
 1046 021e 83E0      		ldi r24,lo8(3)
 1047 0220 60E4      		ldi r22,lo8(64)
 1048 0222 0E94 0000 		call adc_start
 1049 0226 88E8      		ldi r24,lo8(5000)
 1050 0228 93E1      		ldi r25,hi8(5000)
 1051               	.LVL85:
 1052               	.LBB63:
 1053               	.LBB64:
 1054               	.LBB65:
 1055               	.LBB66:
 1056               	.LSM157:
 1057 022a 20E9      		ldi r18,lo8(400)
 1058 022c 31E0      		ldi r19,hi8(400)
 1059               	.L96:
 1060 022e F901      		movw r30,r18
 1061               	.LVL86:
 1062               	/* #APP */
 1063               	 ;  105 "/usr/lib/gcc/avr/4.3.4/../../../avr/include/util/delay_basic.h" 1
 1064 0230 3197      		1: sbiw r30,1
 1065 0232 01F4      		brne 1b
 1066               	 ;  0 "" 2
 1067               	/* #NOAPP */
 1068               	.LBE66:
 1069               	.LBE65:
 1070               	.LSM158:
 1071 0234 0197      		sbiw r24,1
 1072               	.LSM159:
 1073 0236 01F4      		brne .L96
 1074 0238 01E0      		ldi r16,lo8(1)
 1075 023a 10E0      		ldi r17,hi8(1)
 1076               	.LVL87:
 1077               	.LBE64:
 1078               	.LBE63:
 1079               	.LSM160:
 1080 023c F0E2      		ldi r31,lo8(32)
 1081 023e DF2E      		mov r13,r31
 1082               	.LSM161:
 1083 0240 7E01      		movw r14,r28
 1084 0242 0894      		sec
 1085 0244 E11C      		adc r14,__zero_reg__
 1086 0246 F11C      		adc r15,__zero_reg__
 1087               	.L103:
 1088               	.LSM162:
 1089 0248 0E94 0000 		call adc_read
 1090               	.LVL88:
 1091 024c 9C01      		movw r18,r24
 1092               	.LSM163:
 1093 024e 892F      		mov r24,r25
 1094 0250 9927      		clr r25
 1095               	.LVL89:
 1096 0252 482F      		mov r20,r24
 1097 0254 4F70      		andi r20,lo8(15)
 1098 0256 8F70      		andi r24,lo8(15)
 1099 0258 9070      		andi r25,hi8(15)
 1100 025a 0A97      		sbiw r24,10
 1101 025c 00F4      		brsh .L97
 1102 025e 542F      		mov r21,r20
 1103 0260 505D      		subi r21,lo8(-(48))
 1104 0262 00C0      		rjmp .L98
 1105               	.L97:
 1106 0264 542F      		mov r21,r20
 1107 0266 595C      		subi r21,lo8(-(55))
 1108               	.L98:
 1109               	.LSM164:
 1110 0268 C901      		movw r24,r18
 1111               	.LVL90:
 1112 026a 74E0      		ldi r23,4
 1113 026c 9695      	1:	lsr r25
 1114 026e 8795      		ror r24
 1115 0270 7A95      		dec r23
 1116 0272 01F4      		brne 1b
 1117 0274 482F      		mov r20,r24
 1118 0276 4F70      		andi r20,lo8(15)
 1119 0278 8F70      		andi r24,lo8(15)
 1120 027a 9070      		andi r25,hi8(15)
 1121 027c 0A97      		sbiw r24,10
 1122 027e 00F4      		brsh .L99
 1123 0280 842F      		mov r24,r20
 1124 0282 805D      		subi r24,lo8(-(48))
 1125 0284 00C0      		rjmp .L100
 1126               	.L99:
 1127 0286 842F      		mov r24,r20
 1128 0288 895C      		subi r24,lo8(-(55))
 1129               	.L100:
 1130 028a 922F      		mov r25,r18
 1131               	.LVL91:
 1132 028c 9F70      		andi r25,lo8(15)
 1133               	.LSM165:
 1134 028e 2F70      		andi r18,lo8(15)
 1135 0290 3070      		andi r19,hi8(15)
 1136               	.LVL92:
 1137 0292 2A30      		cpi r18,10
 1138 0294 3105      		cpc r19,__zero_reg__
 1139 0296 00F4      		brsh .L101
 1140 0298 905D      		subi r25,lo8(-(48))
 1141 029a 00C0      		rjmp .L102
 1142               	.L101:
 1143 029c 995C      		subi r25,lo8(-(55))
 1144               	.L102:
 1145 029e 9B83      		std Y+3,r25
 1146               	.LSM166:
 1147 02a0 DC82      		std Y+4,r13
 1148               	.LSM167:
 1149 02a2 8A83      		std Y+2,r24
 1150               	.LSM168:
 1151 02a4 5983      		std Y+1,r21
 1152               	.LSM169:
 1153 02a6 C701      		movw r24,r14
 1154 02a8 64E0      		ldi r22,lo8(4)
 1155 02aa 70E0      		ldi r23,hi8(4)
 1156 02ac 0E94 0000 		call usb_serial_write
 1157               	.LVL93:
 1158               	.LSM170:
 1159 02b0 0F5F      		subi r16,lo8(-(1))
 1160 02b2 1F4F      		sbci r17,hi8(-(1))
 1161 02b4 0A30      		cpi r16,10
 1162 02b6 1105      		cpc r17,__zero_reg__
 1163 02b8 01F4      		brne .L103
 1164 02ba 00C0      		rjmp .L79
 1165               	.LVL94:
 1166               	.L67:
 1167               	.LSM171:
 1168 02bc 84E0      		ldi r24,lo8(4)
 1169 02be 60E4      		ldi r22,lo8(64)
 1170 02c0 0E94 0000 		call adc_start
 1171 02c4 88E8      		ldi r24,lo8(5000)
 1172 02c6 93E1      		ldi r25,hi8(5000)
 1173               	.LVL95:
 1174               	.LBB67:
 1175               	.LBB68:
 1176               	.LBB69:
 1177               	.LBB70:
 1178               	.LSM172:
 1179 02c8 20E9      		ldi r18,lo8(400)
 1180 02ca 31E0      		ldi r19,hi8(400)
 1181               	.L104:
 1182 02cc F901      		movw r30,r18
 1183               	.LVL96:
 1184               	/* #APP */
 1185               	 ;  105 "/usr/lib/gcc/avr/4.3.4/../../../avr/include/util/delay_basic.h" 1
 1186 02ce 3197      		1: sbiw r30,1
 1187 02d0 01F4      		brne 1b
 1188               	 ;  0 "" 2
 1189               	/* #NOAPP */
 1190               	.LBE70:
 1191               	.LBE69:
 1192               	.LSM173:
 1193 02d2 0197      		sbiw r24,1
 1194               	.LSM174:
 1195 02d4 01F4      		brne .L104
 1196 02d6 01E0      		ldi r16,lo8(1)
 1197 02d8 10E0      		ldi r17,hi8(1)
 1198               	.LVL97:
 1199               	.LBE68:
 1200               	.LBE67:
 1201               	.LSM175:
 1202 02da 60E2      		ldi r22,lo8(32)
 1203 02dc D62E      		mov r13,r22
 1204               	.LSM176:
 1205 02de 7E01      		movw r14,r28
 1206 02e0 0894      		sec
 1207 02e2 E11C      		adc r14,__zero_reg__
 1208 02e4 F11C      		adc r15,__zero_reg__
 1209               	.L111:
 1210               	.LSM177:
 1211 02e6 0E94 0000 		call adc_read
 1212               	.LVL98:
 1213 02ea 9C01      		movw r18,r24
 1214               	.LSM178:
 1215 02ec 892F      		mov r24,r25
 1216 02ee 9927      		clr r25
 1217               	.LVL99:
 1218 02f0 482F      		mov r20,r24
 1219 02f2 4F70      		andi r20,lo8(15)
 1220 02f4 8F70      		andi r24,lo8(15)
 1221 02f6 9070      		andi r25,hi8(15)
 1222 02f8 0A97      		sbiw r24,10
 1223 02fa 00F4      		brsh .L105
 1224 02fc 542F      		mov r21,r20
 1225 02fe 505D      		subi r21,lo8(-(48))
 1226 0300 00C0      		rjmp .L106
 1227               	.L105:
 1228 0302 542F      		mov r21,r20
 1229 0304 595C      		subi r21,lo8(-(55))
 1230               	.L106:
 1231               	.LSM179:
 1232 0306 C901      		movw r24,r18
 1233               	.LVL100:
 1234 0308 44E0      		ldi r20,4
 1235 030a 9695      	1:	lsr r25
 1236 030c 8795      		ror r24
 1237 030e 4A95      		dec r20
 1238 0310 01F4      		brne 1b
 1239 0312 482F      		mov r20,r24
 1240 0314 4F70      		andi r20,lo8(15)
 1241 0316 8F70      		andi r24,lo8(15)
 1242 0318 9070      		andi r25,hi8(15)
 1243 031a 0A97      		sbiw r24,10
 1244 031c 00F4      		brsh .L107
 1245 031e 842F      		mov r24,r20
 1246 0320 805D      		subi r24,lo8(-(48))
 1247 0322 00C0      		rjmp .L108
 1248               	.L107:
 1249 0324 842F      		mov r24,r20
 1250 0326 895C      		subi r24,lo8(-(55))
 1251               	.L108:
 1252 0328 922F      		mov r25,r18
 1253               	.LVL101:
 1254 032a 9F70      		andi r25,lo8(15)
 1255               	.LSM180:
 1256 032c 2F70      		andi r18,lo8(15)
 1257 032e 3070      		andi r19,hi8(15)
 1258               	.LVL102:
 1259 0330 2A30      		cpi r18,10
 1260 0332 3105      		cpc r19,__zero_reg__
 1261 0334 00F4      		brsh .L109
 1262 0336 905D      		subi r25,lo8(-(48))
 1263 0338 00C0      		rjmp .L110
 1264               	.L109:
 1265 033a 995C      		subi r25,lo8(-(55))
 1266               	.L110:
 1267 033c 9B83      		std Y+3,r25
 1268               	.LSM181:
 1269 033e DC82      		std Y+4,r13
 1270               	.LSM182:
 1271 0340 8A83      		std Y+2,r24
 1272               	.LSM183:
 1273 0342 5983      		std Y+1,r21
 1274               	.LSM184:
 1275 0344 C701      		movw r24,r14
 1276 0346 64E0      		ldi r22,lo8(4)
 1277 0348 70E0      		ldi r23,hi8(4)
 1278 034a 0E94 0000 		call usb_serial_write
 1279               	.LVL103:
 1280               	.LSM185:
 1281 034e 0F5F      		subi r16,lo8(-(1))
 1282 0350 1F4F      		sbci r17,hi8(-(1))
 1283 0352 0A30      		cpi r16,10
 1284 0354 1105      		cpc r17,__zero_reg__
 1285 0356 01F4      		brne .L111
 1286 0358 00C0      		rjmp .L79
 1287               	.LVL104:
 1288               	.L68:
 1289               	.LSM186:
 1290 035a 85E0      		ldi r24,lo8(5)
 1291 035c 60E4      		ldi r22,lo8(64)
 1292 035e 0E94 0000 		call adc_start
 1293 0362 88E8      		ldi r24,lo8(5000)
 1294 0364 93E1      		ldi r25,hi8(5000)
 1295               	.LVL105:
 1296               	.LBB71:
 1297               	.LBB72:
 1298               	.LBB73:
 1299               	.LBB74:
 1300               	.LSM187:
 1301 0366 20E9      		ldi r18,lo8(400)
 1302 0368 31E0      		ldi r19,hi8(400)
 1303               	.L112:
 1304 036a F901      		movw r30,r18
 1305               	.LVL106:
 1306               	/* #APP */
 1307               	 ;  105 "/usr/lib/gcc/avr/4.3.4/../../../avr/include/util/delay_basic.h" 1
 1308 036c 3197      		1: sbiw r30,1
 1309 036e 01F4      		brne 1b
 1310               	 ;  0 "" 2
 1311               	/* #NOAPP */
 1312               	.LBE74:
 1313               	.LBE73:
 1314               	.LSM188:
 1315 0370 0197      		sbiw r24,1
 1316               	.LSM189:
 1317 0372 01F4      		brne .L112
 1318 0374 01E0      		ldi r16,lo8(1)
 1319 0376 10E0      		ldi r17,hi8(1)
 1320               	.LVL107:
 1321               	.LBE72:
 1322               	.LBE71:
 1323               	.LSM190:
 1324 0378 80E2      		ldi r24,lo8(32)
 1325 037a D82E      		mov r13,r24
 1326               	.LVL108:
 1327               	.LSM191:
 1328 037c 7E01      		movw r14,r28
 1329 037e 0894      		sec
 1330 0380 E11C      		adc r14,__zero_reg__
 1331 0382 F11C      		adc r15,__zero_reg__
 1332               	.L119:
 1333               	.LSM192:
 1334 0384 0E94 0000 		call adc_read
 1335               	.LVL109:
 1336 0388 9C01      		movw r18,r24
 1337               	.LSM193:
 1338 038a 892F      		mov r24,r25
 1339 038c 9927      		clr r25
 1340               	.LVL110:
 1341 038e 482F      		mov r20,r24
 1342 0390 4F70      		andi r20,lo8(15)
 1343 0392 8F70      		andi r24,lo8(15)
 1344 0394 9070      		andi r25,hi8(15)
 1345 0396 0A97      		sbiw r24,10
 1346 0398 00F4      		brsh .L113
 1347 039a 542F      		mov r21,r20
 1348 039c 505D      		subi r21,lo8(-(48))
 1349 039e 00C0      		rjmp .L114
 1350               	.L113:
 1351 03a0 542F      		mov r21,r20
 1352 03a2 595C      		subi r21,lo8(-(55))
 1353               	.L114:
 1354               	.LSM194:
 1355 03a4 C901      		movw r24,r18
 1356               	.LVL111:
 1357 03a6 A4E0      		ldi r26,4
 1358 03a8 9695      	1:	lsr r25
 1359 03aa 8795      		ror r24
 1360 03ac AA95      		dec r26
 1361 03ae 01F4      		brne 1b
 1362 03b0 482F      		mov r20,r24
 1363 03b2 4F70      		andi r20,lo8(15)
 1364 03b4 8F70      		andi r24,lo8(15)
 1365 03b6 9070      		andi r25,hi8(15)
 1366 03b8 0A97      		sbiw r24,10
 1367 03ba 00F4      		brsh .L115
 1368 03bc 842F      		mov r24,r20
 1369 03be 805D      		subi r24,lo8(-(48))
 1370 03c0 00C0      		rjmp .L116
 1371               	.L115:
 1372 03c2 842F      		mov r24,r20
 1373 03c4 895C      		subi r24,lo8(-(55))
 1374               	.L116:
 1375 03c6 922F      		mov r25,r18
 1376               	.LVL112:
 1377 03c8 9F70      		andi r25,lo8(15)
 1378               	.LSM195:
 1379 03ca 2F70      		andi r18,lo8(15)
 1380 03cc 3070      		andi r19,hi8(15)
 1381               	.LVL113:
 1382 03ce 2A30      		cpi r18,10
 1383 03d0 3105      		cpc r19,__zero_reg__
 1384 03d2 00F4      		brsh .L117
 1385 03d4 905D      		subi r25,lo8(-(48))
 1386 03d6 00C0      		rjmp .L118
 1387               	.L117:
 1388 03d8 995C      		subi r25,lo8(-(55))
 1389               	.L118:
 1390 03da 9B83      		std Y+3,r25
 1391               	.LSM196:
 1392 03dc DC82      		std Y+4,r13
 1393               	.LSM197:
 1394 03de 8A83      		std Y+2,r24
 1395               	.LSM198:
 1396 03e0 5983      		std Y+1,r21
 1397               	.LSM199:
 1398 03e2 C701      		movw r24,r14
 1399 03e4 64E0      		ldi r22,lo8(4)
 1400 03e6 70E0      		ldi r23,hi8(4)
 1401 03e8 0E94 0000 		call usb_serial_write
 1402               	.LVL114:
 1403               	.LSM200:
 1404 03ec 0F5F      		subi r16,lo8(-(1))
 1405 03ee 1F4F      		sbci r17,hi8(-(1))
 1406 03f0 0A30      		cpi r16,10
 1407 03f2 1105      		cpc r17,__zero_reg__
 1408 03f4 01F4      		brne .L119
 1409 03f6 00C0      		rjmp .L79
 1410               	.LVL115:
 1411               	.L69:
 1412               	.LSM201:
 1413 03f8 86E0      		ldi r24,lo8(6)
 1414 03fa 60E4      		ldi r22,lo8(64)
 1415 03fc 0E94 0000 		call adc_start
 1416 0400 88E8      		ldi r24,lo8(5000)
 1417 0402 93E1      		ldi r25,hi8(5000)
 1418               	.LVL116:
 1419               	.LBB75:
 1420               	.LBB76:
 1421               	.LBB77:
 1422               	.LBB78:
 1423               	.LSM202:
 1424 0404 20E9      		ldi r18,lo8(400)
 1425 0406 31E0      		ldi r19,hi8(400)
 1426               	.L120:
 1427 0408 F901      		movw r30,r18
 1428               	.LVL117:
 1429               	/* #APP */
 1430               	 ;  105 "/usr/lib/gcc/avr/4.3.4/../../../avr/include/util/delay_basic.h" 1
 1431 040a 3197      		1: sbiw r30,1
 1432 040c 01F4      		brne 1b
 1433               	 ;  0 "" 2
 1434               	/* #NOAPP */
 1435               	.LBE78:
 1436               	.LBE77:
 1437               	.LSM203:
 1438 040e 0197      		sbiw r24,1
 1439               	.LSM204:
 1440 0410 01F4      		brne .L120
 1441 0412 01E0      		ldi r16,lo8(1)
 1442 0414 10E0      		ldi r17,hi8(1)
 1443               	.LVL118:
 1444               	.LBE76:
 1445               	.LBE75:
 1446               	.LSM205:
 1447 0416 F0E2      		ldi r31,lo8(32)
 1448 0418 DF2E      		mov r13,r31
 1449               	.LSM206:
 1450 041a 7E01      		movw r14,r28
 1451 041c 0894      		sec
 1452 041e E11C      		adc r14,__zero_reg__
 1453 0420 F11C      		adc r15,__zero_reg__
 1454               	.L127:
 1455               	.LSM207:
 1456 0422 0E94 0000 		call adc_read
 1457               	.LVL119:
 1458 0426 9C01      		movw r18,r24
 1459               	.LSM208:
 1460 0428 892F      		mov r24,r25
 1461 042a 9927      		clr r25
 1462               	.LVL120:
 1463 042c 482F      		mov r20,r24
 1464 042e 4F70      		andi r20,lo8(15)
 1465 0430 8F70      		andi r24,lo8(15)
 1466 0432 9070      		andi r25,hi8(15)
 1467 0434 0A97      		sbiw r24,10
 1468 0436 00F4      		brsh .L121
 1469 0438 542F      		mov r21,r20
 1470 043a 505D      		subi r21,lo8(-(48))
 1471 043c 00C0      		rjmp .L122
 1472               	.L121:
 1473 043e 542F      		mov r21,r20
 1474 0440 595C      		subi r21,lo8(-(55))
 1475               	.L122:
 1476               	.LSM209:
 1477 0442 C901      		movw r24,r18
 1478               	.LVL121:
 1479 0444 74E0      		ldi r23,4
 1480 0446 9695      	1:	lsr r25
 1481 0448 8795      		ror r24
 1482 044a 7A95      		dec r23
 1483 044c 01F4      		brne 1b
 1484 044e 482F      		mov r20,r24
 1485 0450 4F70      		andi r20,lo8(15)
 1486 0452 8F70      		andi r24,lo8(15)
 1487 0454 9070      		andi r25,hi8(15)
 1488 0456 0A97      		sbiw r24,10
 1489 0458 00F4      		brsh .L123
 1490 045a 842F      		mov r24,r20
 1491 045c 805D      		subi r24,lo8(-(48))
 1492 045e 00C0      		rjmp .L124
 1493               	.L123:
 1494 0460 842F      		mov r24,r20
 1495 0462 895C      		subi r24,lo8(-(55))
 1496               	.L124:
 1497 0464 922F      		mov r25,r18
 1498               	.LVL122:
 1499 0466 9F70      		andi r25,lo8(15)
 1500               	.LSM210:
 1501 0468 2F70      		andi r18,lo8(15)
 1502 046a 3070      		andi r19,hi8(15)
 1503               	.LVL123:
 1504 046c 2A30      		cpi r18,10
 1505 046e 3105      		cpc r19,__zero_reg__
 1506 0470 00F4      		brsh .L125
 1507 0472 905D      		subi r25,lo8(-(48))
 1508 0474 00C0      		rjmp .L126
 1509               	.L125:
 1510 0476 995C      		subi r25,lo8(-(55))
 1511               	.L126:
 1512 0478 9B83      		std Y+3,r25
 1513               	.LSM211:
 1514 047a DC82      		std Y+4,r13
 1515               	.LSM212:
 1516 047c 8A83      		std Y+2,r24
 1517               	.LSM213:
 1518 047e 5983      		std Y+1,r21
 1519               	.LSM214:
 1520 0480 C701      		movw r24,r14
 1521 0482 64E0      		ldi r22,lo8(4)
 1522 0484 70E0      		ldi r23,hi8(4)
 1523 0486 0E94 0000 		call usb_serial_write
 1524               	.LVL124:
 1525               	.LSM215:
 1526 048a 0F5F      		subi r16,lo8(-(1))
 1527 048c 1F4F      		sbci r17,hi8(-(1))
 1528 048e 0A30      		cpi r16,10
 1529 0490 1105      		cpc r17,__zero_reg__
 1530 0492 01F4      		brne .L127
 1531 0494 00C0      		rjmp .L79
 1532               	.LVL125:
 1533               	.L157:
 1534               	.LSM216:
 1535 0496 87E0      		ldi r24,lo8(7)
 1536 0498 60E4      		ldi r22,lo8(64)
 1537 049a 0E94 0000 		call adc_start
 1538 049e 88E8      		ldi r24,lo8(5000)
 1539 04a0 93E1      		ldi r25,hi8(5000)
 1540               	.LVL126:
 1541               	.LBB79:
 1542               	.LBB80:
 1543               	.LBB81:
 1544               	.LBB82:
 1545               	.LSM217:
 1546 04a2 20E9      		ldi r18,lo8(400)
 1547 04a4 31E0      		ldi r19,hi8(400)
 1548               	.L128:
 1549 04a6 F901      		movw r30,r18
 1550               	.LVL127:
 1551               	/* #APP */
 1552               	 ;  105 "/usr/lib/gcc/avr/4.3.4/../../../avr/include/util/delay_basic.h" 1
 1553 04a8 3197      		1: sbiw r30,1
 1554 04aa 01F4      		brne 1b
 1555               	 ;  0 "" 2
 1556               	/* #NOAPP */
 1557               	.LBE82:
 1558               	.LBE81:
 1559               	.LSM218:
 1560 04ac 0197      		sbiw r24,1
 1561               	.LSM219:
 1562 04ae 01F4      		brne .L128
 1563 04b0 01E0      		ldi r16,lo8(1)
 1564 04b2 10E0      		ldi r17,hi8(1)
 1565               	.LVL128:
 1566               	.LBE80:
 1567               	.LBE79:
 1568               	.LSM220:
 1569 04b4 60E2      		ldi r22,lo8(32)
 1570 04b6 D62E      		mov r13,r22
 1571               	.LSM221:
 1572 04b8 7E01      		movw r14,r28
 1573 04ba 0894      		sec
 1574 04bc E11C      		adc r14,__zero_reg__
 1575 04be F11C      		adc r15,__zero_reg__
 1576               	.L135:
 1577               	.LSM222:
 1578 04c0 0E94 0000 		call adc_read
 1579               	.LVL129:
 1580 04c4 9C01      		movw r18,r24
 1581               	.LSM223:
 1582 04c6 892F      		mov r24,r25
 1583 04c8 9927      		clr r25
 1584               	.LVL130:
 1585 04ca 482F      		mov r20,r24
 1586 04cc 4F70      		andi r20,lo8(15)
 1587 04ce 8F70      		andi r24,lo8(15)
 1588 04d0 9070      		andi r25,hi8(15)
 1589 04d2 0A97      		sbiw r24,10
 1590 04d4 00F4      		brsh .L129
 1591 04d6 542F      		mov r21,r20
 1592 04d8 505D      		subi r21,lo8(-(48))
 1593 04da 00C0      		rjmp .L130
 1594               	.L129:
 1595 04dc 542F      		mov r21,r20
 1596 04de 595C      		subi r21,lo8(-(55))
 1597               	.L130:
 1598               	.LSM224:
 1599 04e0 C901      		movw r24,r18
 1600               	.LVL131:
 1601 04e2 44E0      		ldi r20,4
 1602 04e4 9695      	1:	lsr r25
 1603 04e6 8795      		ror r24
 1604 04e8 4A95      		dec r20
 1605 04ea 01F4      		brne 1b
 1606 04ec 482F      		mov r20,r24
 1607 04ee 4F70      		andi r20,lo8(15)
 1608 04f0 8F70      		andi r24,lo8(15)
 1609 04f2 9070      		andi r25,hi8(15)
 1610 04f4 0A97      		sbiw r24,10
 1611 04f6 00F4      		brsh .L131
 1612 04f8 842F      		mov r24,r20
 1613 04fa 805D      		subi r24,lo8(-(48))
 1614 04fc 00C0      		rjmp .L132
 1615               	.L131:
 1616 04fe 842F      		mov r24,r20
 1617 0500 895C      		subi r24,lo8(-(55))
 1618               	.L132:
 1619 0502 922F      		mov r25,r18
 1620               	.LVL132:
 1621 0504 9F70      		andi r25,lo8(15)
 1622               	.LSM225:
 1623 0506 2F70      		andi r18,lo8(15)
 1624 0508 3070      		andi r19,hi8(15)
 1625               	.LVL133:
 1626 050a 2A30      		cpi r18,10
 1627 050c 3105      		cpc r19,__zero_reg__
 1628 050e 00F4      		brsh .L133
 1629 0510 905D      		subi r25,lo8(-(48))
 1630 0512 00C0      		rjmp .L134
 1631               	.L133:
 1632 0514 995C      		subi r25,lo8(-(55))
 1633               	.L134:
 1634 0516 9B83      		std Y+3,r25
 1635               	.LSM226:
 1636 0518 DC82      		std Y+4,r13
 1637               	.LSM227:
 1638 051a 8A83      		std Y+2,r24
 1639               	.LSM228:
 1640 051c 5983      		std Y+1,r21
 1641               	.LSM229:
 1642 051e C701      		movw r24,r14
 1643 0520 64E0      		ldi r22,lo8(4)
 1644 0522 70E0      		ldi r23,hi8(4)
 1645 0524 0E94 0000 		call usb_serial_write
 1646               	.LVL134:
 1647               	.LSM230:
 1648 0528 0F5F      		subi r16,lo8(-(1))
 1649 052a 1F4F      		sbci r17,hi8(-(1))
 1650 052c 0A30      		cpi r16,10
 1651 052e 1105      		cpc r17,__zero_reg__
 1652 0530 01F4      		brne .L135
 1653 0532 00C0      		rjmp .L79
 1654               	.LVL135:
 1655               	.L154:
 1656               	.LSM231:
 1657 0534 81E0      		ldi r24,lo8(1)
 1658 0536 00C0      		rjmp .L155
 1659               	.LVL136:
 1660               	.L79:
 1661               	.LSM232:
 1662 0538 80E0      		ldi r24,lo8(0)
 1663               	.L155:
 1664 053a 0E94 0000 		call usb_serial_putchar
 1665               	.LSM233:
 1666 053e 8AE0      		ldi r24,lo8(10)
 1667 0540 0E94 0000 		call usb_serial_putchar
 1668               	/* epilogue start */
 1669               	.LSM234:
 1670 0544 0F90      		pop __tmp_reg__
 1671 0546 0F90      		pop __tmp_reg__
 1672 0548 0F90      		pop __tmp_reg__
 1673 054a 0F90      		pop __tmp_reg__
 1674 054c CF91      		pop r28
 1675 054e DF91      		pop r29
 1676 0550 1F91      		pop r17
 1677               	.LVL137:
 1678 0552 0F91      		pop r16
 1679               	.LVL138:
 1680 0554 FF90      		pop r15
 1681 0556 EF90      		pop r14
 1682 0558 DF90      		pop r13
 1683 055a 0895      		ret
 1684               	.LFE11:
 1686               		.section	.text.handle_command,"ax",@progbits
 1687               	.global	handle_command
 1689               	handle_command:
 1690               	.LFB15:
 1691               	.LSM235:
 1692               	.LVL139:
 1693               	/* prologue: function */
 1694               	/* frame size = 0 */
 1695 0000 FC01      		movw r30,r24
 1696               	.LSM236:
 1697 0002 6623      		tst r22
 1698 0004 01F0      		breq .L167
 1699               	.LVL140:
 1700               	.LSM237:
 1701 0006 8081      		ld r24,Z
 1702 0008 8330      		cpi r24,lo8(3)
 1703 000a 01F0      		breq .L163
 1704 000c 8430      		cpi r24,lo8(4)
 1705 000e 00F4      		brsh .L166
 1706 0010 8823      		tst r24
 1707 0012 01F0      		breq .L161
 1708 0014 8130      		cpi r24,lo8(1)
 1709 0016 01F4      		brne .L160
 1710 0018 00C0      		rjmp .L168
 1711               	.L166:
 1712 001a 8430      		cpi r24,lo8(4)
 1713 001c 01F0      		breq .L164
 1714 001e 8730      		cpi r24,lo8(7)
 1715 0020 01F4      		brne .L160
 1716 0022 00C0      		rjmp .L169
 1717               	.L161:
 1718               	.LSM238:
 1719 0024 0E94 0000 		call handle_version_command
 1720               	.LVL141:
 1721 0028 0895      		ret
 1722               	.LVL142:
 1723               	.L168:
 1724               	.LSM239:
 1725 002a CF01      		movw r24,r30
 1726 002c 0E94 0000 		call handle_ping_command
 1727               	.LVL143:
 1728 0030 0895      		ret
 1729               	.LVL144:
 1730               	.L163:
 1731               	.LSM240:
 1732 0032 0E94 0000 		call handle_pwm_ports_command
 1733               	.LVL145:
 1734 0036 0895      		ret
 1735               	.LVL146:
 1736               	.L164:
 1737               	.LSM241:
 1738 0038 8181      		ldd r24,Z+1
 1739 003a 6281      		ldd r22,Z+2
 1740               	.LVL147:
 1741 003c 0E94 0000 		call handle_set_pwm_command
 1742               	.LVL148:
 1743 0040 0895      		ret
 1744               	.LVL149:
 1745               	.L169:
 1746               	.LSM242:
 1747 0042 8181      		ldd r24,Z+1
 1748 0044 0E94 0000 		call handle_sensor_query
 1749               	.LVL150:
 1750 0048 0895      		ret
 1751               	.LVL151:
 1752               	.L160:
 1753               	.LSM243:
 1754 004a 80E0      		ldi r24,lo8(__c.1758)
 1755 004c 90E0      		ldi r25,hi8(__c.1758)
 1756 004e 0E94 0000 		call send_str
 1757               	.LVL152:
 1758               	.L167:
 1759 0052 0895      		ret
 1760               	.LFE15:
 1762               		.section	.text.sensor_display,"ax",@progbits
 1763               	.global	sensor_display
 1765               	sensor_display:
 1766               	.LFB7:
 1767               	.LSM244:
 1768 0000 0F93      		push r16
 1769 0002 1F93      		push r17
 1770 0004 DF93      		push r29
 1771 0006 CF93      		push r28
 1772 0008 00D0      		rcall .
 1773 000a 00D0      		rcall .
 1774 000c CDB7      		in r28,__SP_L__
 1775 000e DEB7      		in r29,__SP_H__
 1776               	/* prologue: function */
 1777               	/* frame size = 4 */
 1778               	.LSM245:
 1779 0010 80E0      		ldi r24,lo8(0)
 1780 0012 60E4      		ldi r22,lo8(64)
 1781 0014 0E94 0000 		call adc_start
 1782               	.LSM246:
 1783 0018 0E94 0000 		call adc_read
 1784 001c 8C01      		movw r16,r24
 1785 001e 20E0      		ldi r18,lo8(0)
 1786               	.LSM247:
 1787 0020 205D      		subi r18,lo8(-(48))
 1788               	.LSM248:
 1789 0022 2B83      		std Y+3,r18
 1790               	.LSM249:
 1791 0024 80E2      		ldi r24,lo8(32)
 1792 0026 8C83      		std Y+4,r24
 1793               	.LSM250:
 1794 0028 2A83      		std Y+2,r18
 1795               	.LSM251:
 1796 002a 2983      		std Y+1,r18
 1797               	.LSM252:
 1798 002c CE01      		movw r24,r28
 1799 002e 0196      		adiw r24,1
 1800 0030 64E0      		ldi r22,lo8(4)
 1801 0032 70E0      		ldi r23,hi8(4)
 1802 0034 0E94 0000 		call usb_serial_write
 1803               	.LSM253:
 1804 0038 0436      		cpi r16,100
 1805 003a 1105      		cpc r17,__zero_reg__
 1806               	.LVL153:
 1807 003c 00F4      		brsh .L177
 1808               	.LSM254:
 1809 003e 18BC      		out 72-32,__zero_reg__
 1810 0040 00C0      		rjmp .L192
 1811               	.L177:
 1812               	.LSM255:
 1813 0042 083C      		cpi r16,200
 1814 0044 1105      		cpc r17,__zero_reg__
 1815 0046 00F4      		brsh .L179
 1816               	.LSM256:
 1817 0048 18BC      		out 72-32,__zero_reg__
 1818               	.LSM257:
 1819 004a 1092 8900 		sts (136)+1,__zero_reg__
 1820 004e 1092 8800 		sts 136,__zero_reg__
 1821 0052 00C0      		rjmp .L194
 1822               	.L179:
 1823               	.LSM258:
 1824 0054 81E0      		ldi r24,hi8(300)
 1825 0056 0C32      		cpi r16,lo8(300)
 1826 0058 1807      		cpc r17,r24
 1827 005a 00F4      		brsh .L180
 1828               	.LSM259:
 1829 005c 18BC      		out 72-32,__zero_reg__
 1830               	.LSM260:
 1831 005e 1092 8900 		sts (136)+1,__zero_reg__
 1832 0062 1092 8800 		sts 136,__zero_reg__
 1833               	.LSM261:
 1834 0066 8FEF      		ldi r24,lo8(-1)
 1835               	.L191:
 1836 0068 8093 B300 		sts 179,r24
 1837               	.L188:
 1838               	.LSM262:
 1839 006c 1092 B400 		sts 180,__zero_reg__
 1840 0070 00C0      		rjmp .L187
 1841               	.L180:
 1842               	.LSM263:
 1843 0072 81E0      		ldi r24,hi8(400)
 1844 0074 0039      		cpi r16,lo8(400)
 1845 0076 1807      		cpc r17,r24
 1846 0078 00F4      		brsh .L181
 1847               	.LSM264:
 1848 007a 18BC      		out 72-32,__zero_reg__
 1849               	.LSM265:
 1850 007c 1092 8900 		sts (136)+1,__zero_reg__
 1851 0080 1092 8800 		sts 136,__zero_reg__
 1852               	.LSM266:
 1853 0084 8FEF      		ldi r24,lo8(-1)
 1854 0086 00C0      		rjmp .L193
 1855               	.L181:
 1856               	.LSM267:
 1857 0088 81E0      		ldi r24,hi8(500)
 1858 008a 043F      		cpi r16,lo8(500)
 1859 008c 1807      		cpc r17,r24
 1860 008e 00F4      		brsh .L182
 1861               	.LSM268:
 1862 0090 8FEF      		ldi r24,lo8(-1)
 1863 0092 88BD      		out 72-32,r24
 1864               	.L192:
 1865               	.LSM269:
 1866 0094 1092 8900 		sts (136)+1,__zero_reg__
 1867 0098 1092 8800 		sts 136,__zero_reg__
 1868 009c 00C0      		rjmp .L190
 1869               	.L182:
 1870               	.LSM270:
 1871 009e 82E0      		ldi r24,hi8(600)
 1872 00a0 0835      		cpi r16,lo8(600)
 1873 00a2 1807      		cpc r17,r24
 1874 00a4 00F4      		brsh .L183
 1875               	.LSM271:
 1876 00a6 8FEF      		ldi r24,lo8(-1)
 1877 00a8 88BD      		out 72-32,r24
 1878               	.LSM272:
 1879 00aa 1092 8900 		sts (136)+1,__zero_reg__
 1880 00ae 1092 8800 		sts 136,__zero_reg__
 1881               	.LSM273:
 1882 00b2 1092 B300 		sts 179,__zero_reg__
 1883 00b6 00C0      		rjmp .L189
 1884               	.L183:
 1885               	.LSM274:
 1886 00b8 82E0      		ldi r24,hi8(700)
 1887 00ba 0C3B      		cpi r16,lo8(700)
 1888 00bc 1807      		cpc r17,r24
 1889 00be 00F4      		brsh .L184
 1890               	.LSM275:
 1891 00c0 8FEF      		ldi r24,lo8(-1)
 1892 00c2 88BD      		out 72-32,r24
 1893               	.LSM276:
 1894 00c4 1092 8900 		sts (136)+1,__zero_reg__
 1895 00c8 1092 8800 		sts 136,__zero_reg__
 1896 00cc 00C0      		rjmp .L191
 1897               	.L184:
 1898               	.LSM277:
 1899 00ce 83E0      		ldi r24,hi8(800)
 1900 00d0 0032      		cpi r16,lo8(800)
 1901 00d2 1807      		cpc r17,r24
 1902 00d4 00F4      		brsh .L185
 1903               	.LSM278:
 1904 00d6 8FEF      		ldi r24,lo8(-1)
 1905 00d8 88BD      		out 72-32,r24
 1906               	.LSM279:
 1907 00da 1092 8900 		sts (136)+1,__zero_reg__
 1908 00de 1092 8800 		sts 136,__zero_reg__
 1909               	.L193:
 1910               	.LSM280:
 1911 00e2 8093 B300 		sts 179,r24
 1912 00e6 00C0      		rjmp .L189
 1913               	.L185:
 1914               	.LSM281:
 1915 00e8 83E0      		ldi r24,hi8(900)
 1916 00ea 0438      		cpi r16,lo8(900)
 1917 00ec 1807      		cpc r17,r24
 1918 00ee 00F4      		brsh .L186
 1919               	.LSM282:
 1920 00f0 18BC      		out 72-32,__zero_reg__
 1921               	.LSM283:
 1922 00f2 8FEF      		ldi r24,lo8(255)
 1923 00f4 90E0      		ldi r25,hi8(255)
 1924 00f6 9093 8900 		sts (136)+1,r25
 1925 00fa 8093 8800 		sts 136,r24
 1926               	.L190:
 1927               	.LSM284:
 1928 00fe 1092 B300 		sts 179,__zero_reg__
 1929 0102 00C0      		rjmp .L188
 1930               	.L186:
 1931               	.LSM285:
 1932 0104 085E      		subi r16,lo8(1000)
 1933 0106 1340      		sbci r17,hi8(1000)
 1934 0108 00F4      		brsh .L187
 1935               	.LSM286:
 1936 010a 18BC      		out 72-32,__zero_reg__
 1937               	.LSM287:
 1938 010c 8FEF      		ldi r24,lo8(255)
 1939 010e 90E0      		ldi r25,hi8(255)
 1940 0110 9093 8900 		sts (136)+1,r25
 1941 0114 8093 8800 		sts 136,r24
 1942               	.L194:
 1943               	.LSM288:
 1944 0118 1092 B300 		sts 179,__zero_reg__
 1945               	.LSM289:
 1946 011c 8FEF      		ldi r24,lo8(-1)
 1947               	.L189:
 1948 011e 8093 B400 		sts 180,r24
 1949               	.L187:
 1950               	/* epilogue start */
 1951               	.LSM290:
 1952 0122 0F90      		pop __tmp_reg__
 1953 0124 0F90      		pop __tmp_reg__
 1954 0126 0F90      		pop __tmp_reg__
 1955 0128 0F90      		pop __tmp_reg__
 1956 012a CF91      		pop r28
 1957 012c DF91      		pop r29
 1958 012e 1F91      		pop r17
 1959 0130 0F91      		pop r16
 1960               	.LVL154:
 1961 0132 0895      		ret
 1962               	.LFE7:
 1964               		.section	.text.main,"ax",@progbits
 1965               	.global	main
 1967               	main:
 1968               	.LFB16:
 1969               	.LSM291:
 1970 0000 0F93      		push r16
 1971 0002 1F93      		push r17
 1972 0004 DF93      		push r29
 1973 0006 CF93      		push r28
 1974 0008 CDB7      		in r28,__SP_L__
 1975 000a DEB7      		in r29,__SP_H__
 1976 000c A097      		sbiw r28,32
 1977 000e 0FB6      		in __tmp_reg__,__SREG__
 1978 0010 F894      		cli
 1979 0012 DEBF      		out __SP_H__,r29
 1980 0014 0FBE      		out __SREG__,__tmp_reg__
 1981 0016 CDBF      		out __SP_L__,r28
 1982               	/* prologue: function */
 1983               	/* frame size = 32 */
 1984               	.LSM292:
 1985 0018 80E8      		ldi r24,lo8(-128)
 1986 001a 8093 6100 		sts 97,r24
 1987 001e 82E0      		ldi r24,lo8(2)
 1988 0020 8093 6100 		sts 97,r24
 1989               	.LSM293:
 1990 0024 0E94 0000 		call setup_pwms
 1991               	.LSM294:
 1992 0028 0E94 0000 		call usb_init
 1993               	.L196:
 1994               	.LSM295:
 1995 002c 0E94 0000 		call usb_configured
 1996 0030 8823      		tst r24
 1997 0032 01F0      		breq .L196
 1998 0034 80E1      		ldi r24,lo8(10000)
 1999 0036 97E2      		ldi r25,hi8(10000)
 2000               	.LVL155:
 2001               	.LBB83:
 2002               	.LBB84:
 2003               	.LBB85:
 2004               	.LBB86:
 2005               	.LSM296:
 2006 0038 20E9      		ldi r18,lo8(400)
 2007 003a 31E0      		ldi r19,hi8(400)
 2008               	.L197:
 2009 003c F901      		movw r30,r18
 2010               	.LVL156:
 2011               	/* #APP */
 2012               	 ;  105 "/usr/lib/gcc/avr/4.3.4/../../../avr/include/util/delay_basic.h" 1
 2013 003e 3197      		1: sbiw r30,1
 2014 0040 01F4      		brne 1b
 2015               	 ;  0 "" 2
 2016               	/* #NOAPP */
 2017               	.LBE86:
 2018               	.LBE85:
 2019               	.LSM297:
 2020 0042 0197      		sbiw r24,1
 2021               	.LSM298:
 2022 0044 01F4      		brne .L197
 2023               	.LBE84:
 2024               	.LBE83:
 2025               	.LSM299:
 2026 0046 8E01      		movw r16,r28
 2027 0048 0F5F      		subi r16,lo8(-(1))
 2028 004a 1F4F      		sbci r17,hi8(-(1))
 2029               	.LVL157:
 2030               	.L205:
 2031               	.LSM300:
 2032 004c 0E94 0000 		call usb_serial_get_control
 2033               	.LVL158:
 2034 0050 80FF      		sbrs r24,0
 2035 0052 00C0      		rjmp .L205
 2036               	.LSM301:
 2037 0054 0E94 0000 		call usb_serial_flush_input
 2038               	.L199:
 2039               	.LSM302:
 2040 0058 C801      		movw r24,r16
 2041 005a 60E2      		ldi r22,lo8(32)
 2042 005c 0E94 0000 		call recv_str
 2043 0060 682F      		mov r22,r24
 2044               	.LVL159:
 2045               	.LSM303:
 2046 0062 8F3F      		cpi r24,lo8(-1)
 2047 0064 01F0      		breq .L205
 2048               	.LVL160:
 2049               	.LSM304:
 2050 0066 C801      		movw r24,r16
 2051               	.LVL161:
 2052 0068 0E94 0000 		call handle_command
 2053               	.LVL162:
 2054               	.LSM305:
 2055 006c 0E94 0000 		call sensor_display
 2056 0070 00C0      		rjmp .L199
 2057               	.LFE16:
 2059               		.section	.progmem.data,"a",@progbits
 2062               	__c.1841:
 2063 0000 222C 206D 		.string	"\", must be ? or =\r\n"
 2063      7573 7420 
 2063      6265 203F 
 2063      206F 7220 
 2063      3D0D 0A00 
 2066               	__c.1839:
 2067 0014 556E 6B6E 		.string	"Unknown command \""
 2067      6F77 6E20 
 2067      636F 6D6D 
 2067      616E 6420 
 2067      2200 
 2070               	__c.1837:
 2071 0026 222C 206D 		.string	"\", must be 0 or 1\r\n"
 2071      7573 7420 
 2071      6265 2030 
 2071      206F 7220 
 2071      310D 0A00 
 2074               	__c.1835:
 2075 003a 556E 6B6E 		.string	"Unknown value \""
 2075      6F77 6E20 
 2075      7661 6C75 
 2075      6520 2200 
 2078               	__c.1833:
 2079 004a 0D0A 00   		.string	"\r\n"
 2082               	__c.1831:
 2083 004d 222C 206D 		.string	"\", must be 0 to 7\r\n"
 2083      7573 7420 
 2083      6265 2030 
 2083      2074 6F20 
 2083      370D 0A00 
 2086               	__c.1829:
 2087 0061 556E 6B6E 		.string	"Unknown pin \""
 2087      6F77 6E20 
 2087      7069 6E20 
 2087      2200 
 2090               	__c.1827:
 2091 006f 222C 206D 		.string	"\", must be A - F\r\n"
 2091      7573 7420 
 2091      6265 2041 
 2091      202D 2046 
 2091      0D0A 00
 2094               	__c.1825:
 2095 0082 556E 6B6E 		.string	"Unknown port \""
 2095      6F77 6E20 
 2095      706F 7274 
 2095      2022 00
 2098               	__c.1823:
 2099 0091 756E 7265 		.string	"unrecognized format, 3 chars min req'd\r\n"
 2099      636F 676E 
 2099      697A 6564 
 2099      2066 6F72 
 2099      6D61 742C 
 2102               	__c.1758:
 2103 00ba 494E 5641 		.string	"INVALID_COMMAND_CODE"
 2103      4C49 445F 
 2103      434F 4D4D 
 2103      414E 445F 
 2103      434F 4445 
 2106               	__c.1745:
 2107 00cf 0102 0304 		.string	"\001\002\003\004\005\006\007\b\n"
 2107      0506 0708 
 2107      0A00 
 2110               	__c.1728:
 2111 00d9 4C61 6D70 		.string	"Lamp Controler\n"
 2111      2043 6F6E 
 2111      7472 6F6C 
 2111      6572 0A00 
 2232               	.Letext0:
DEFINED SYMBOLS
                            *ABS*:00000000 lightctl.c
     /tmp/cc774ic0.s:2      *ABS*:0000003f __SREG__
     /tmp/cc774ic0.s:3      *ABS*:0000003e __SP_H__
     /tmp/cc774ic0.s:4      *ABS*:0000003d __SP_L__
     /tmp/cc774ic0.s:5      *ABS*:00000034 __CCP__
     /tmp/cc774ic0.s:6      *ABS*:00000000 __tmp_reg__
     /tmp/cc774ic0.s:7      *ABS*:00000001 __zero_reg__
     /tmp/cc774ic0.s:21     .text.set_default_duty_cycles:00000000 set_default_duty_cycles
     /tmp/cc774ic0.s:65     .text.setup_pwms:00000000 setup_pwms
     /tmp/cc774ic0.s:110    .text.send_str:00000000 send_str
     /tmp/cc774ic0.s:155    .text.parse_and_execute_command:00000000 parse_and_execute_command
     /tmp/cc774ic0.s:2098   .progmem.data:00000091 __c.1823
     /tmp/cc774ic0.s:2094   .progmem.data:00000082 __c.1825
     /tmp/cc774ic0.s:2090   .progmem.data:0000006f __c.1827
     /tmp/cc774ic0.s:2086   .progmem.data:00000061 __c.1829
     /tmp/cc774ic0.s:2082   .progmem.data:0000004d __c.1831
     /tmp/cc774ic0.s:2078   .progmem.data:0000004a __c.1833
     /tmp/cc774ic0.s:2074   .progmem.data:0000003a __c.1835
     /tmp/cc774ic0.s:2070   .progmem.data:00000026 __c.1837
     /tmp/cc774ic0.s:2066   .progmem.data:00000014 __c.1839
     /tmp/cc774ic0.s:2062   .progmem.data:00000000 __c.1841
     /tmp/cc774ic0.s:360    .text.handle_pwm_ports_command:00000000 handle_pwm_ports_command
     /tmp/cc774ic0.s:2106   .progmem.data:000000cf __c.1745
     /tmp/cc774ic0.s:383    .text.handle_ping_command:00000000 handle_ping_command
     /tmp/cc774ic0.s:440    .text.handle_version_command:00000000 handle_version_command
     /tmp/cc774ic0.s:2110   .progmem.data:000000d9 __c.1728
     /tmp/cc774ic0.s:460    .text.handle_set_pwm_command:00000000 handle_set_pwm_command
     /tmp/cc774ic0.s:577    .text.recv_str:00000000 recv_str
     /tmp/cc774ic0.s:653    .text.handle_sensor_query:00000000 handle_sensor_query
     /tmp/cc774ic0.s:1689   .text.handle_command:00000000 handle_command
     /tmp/cc774ic0.s:2102   .progmem.data:000000ba __c.1758
     /tmp/cc774ic0.s:1765   .text.sensor_display:00000000 sensor_display
     /tmp/cc774ic0.s:1967   .text.main:00000000 main

UNDEFINED SYMBOLS
__do_copy_data
__do_clear_bss
usb_serial_putchar
usb_serial_getchar
usb_configured
usb_serial_get_control
adc_start
adc_read
usb_serial_write
usb_init
usb_serial_flush_input
